ARM GAS  C:\Users\acer\AppData\Local\Temp\ccQEWjNP.s 			page 1


   1              		.syntax unified
   2              		.cpu cortex-m3
   3              		.fpu softvfp
   4              		.eabi_attribute 20, 1
   5              		.eabi_attribute 21, 1
   6              		.eabi_attribute 23, 3
   7              		.eabi_attribute 24, 1
   8              		.eabi_attribute 25, 1
   9              		.eabi_attribute 26, 1
  10              		.eabi_attribute 30, 1
  11              		.eabi_attribute 34, 1
  12              		.eabi_attribute 18, 4
  13              		.thumb
  14              		.syntax unified
  15              		.file	"main.c"
  16              		.text
  17              	.Ltext0:
  18              		.cfi_sections	.debug_frame
  19              		.section	.text.getValue,"ax",%progbits
  20              		.align	2
  21              		.global	getValue
  22              		.thumb
  23              		.thumb_func
  24              		.type	getValue, %function
  25              	getValue:
  26              	.LFB63:
  27              		.file 1 "main.c"
   1:main.c        **** /* ================================================================================
   2:main.c        ****  *
   3:main.c        ****  * Copyright YOUR COMPANY, THE YEAR
   4:main.c        ****  * All Rights Reserved
   5:main.c        ****  * UNPUBLISHED, LICENSED SOFTWARE.
   6:main.c        ****  *
   7:main.c        ****  * CONFIDENTIAL AND PROPRIETARY INFORMATION
   8:main.c        ****  * WHICH IS THE PROPERTY OF your company.
   9:main.c        ****  *
  10:main.c        ****  * ================================================================================
  11:main.c        **** */
  12:main.c        **** #include "project.h"
  13:main.c        **** 
  14:main.c        **** 
  15:main.c        **** int getValue(int sw1, int sw2, int sw3, int sw4, int sw5){
  28              		.loc 1 15 0
  29              		.cfi_startproc
  30              		@ args = 4, pretend = 0, frame = 0
  31              		@ frame_needed = 0, uses_anonymous_args = 0
  32              		@ link register save eliminated.
  33              	.LVL0:
  34 0000 30B4     		push	{r4, r5}
  35              		.cfi_def_cfa_offset 8
  36              		.cfi_offset 4, -8
  37              		.cfi_offset 5, -4
  38 0002 029D     		ldr	r5, [sp, #8]
  16:main.c        ****     if(sw1==0&&sw2==0&&sw3==0&&sw4==0&&sw5==0) return 0;
  39              		.loc 1 16 0
  40 0004 0446     		mov	r4, r0
  41 0006 28B9     		cbnz	r0, .L2
ARM GAS  C:\Users\acer\AppData\Local\Temp\ccQEWjNP.s 			page 2


  42              		.loc 1 16 0 is_stmt 0 discriminator 1
  43 0008 21B9     		cbnz	r1, .L2
  44              		.loc 1 16 0 discriminator 2
  45 000a 1AB9     		cbnz	r2, .L2
  46              		.loc 1 16 0 discriminator 3
  47 000c 13B9     		cbnz	r3, .L2
  48              		.loc 1 16 0 discriminator 4
  49 000e 002D     		cmp	r5, #0
  50 0010 00F01281 		beq	.L34
  51              	.L2:
  17:main.c        ****     if(sw1==1&&sw2==0&&sw3==0&&sw4==0&&sw5==0) return 1;
  52              		.loc 1 17 0 is_stmt 1
  53 0014 012C     		cmp	r4, #1
  54 0016 05D1     		bne	.L4
  55              		.loc 1 17 0 is_stmt 0 discriminator 1
  56 0018 21B9     		cbnz	r1, .L4
  57              		.loc 1 17 0 discriminator 2
  58 001a 1AB9     		cbnz	r2, .L4
  59              		.loc 1 17 0 discriminator 3
  60 001c 13B9     		cbnz	r3, .L4
  61              		.loc 1 17 0 discriminator 4
  62 001e 002D     		cmp	r5, #0
  63 0020 00F00C81 		beq	.L35
  64              	.L4:
  18:main.c        ****     if(sw1==0&&sw2==1&&sw3==0&&sw4==0&&sw5==0) return 2;
  65              		.loc 1 18 0 is_stmt 1
  66 0024 34B9     		cbnz	r4, .L5
  67              		.loc 1 18 0 is_stmt 0 discriminator 1
  68 0026 0129     		cmp	r1, #1
  69 0028 04D1     		bne	.L5
  70              		.loc 1 18 0 discriminator 2
  71 002a 1AB9     		cbnz	r2, .L5
  72              		.loc 1 18 0 discriminator 3
  73 002c 13B9     		cbnz	r3, .L5
  74              		.loc 1 18 0 discriminator 4
  75 002e 002D     		cmp	r5, #0
  76 0030 00F00681 		beq	.L36
  77              	.L5:
  19:main.c        ****     if(sw1==1&&sw2==1&&sw3==0&&sw4==0&&sw5==0) return 3;
  78              		.loc 1 19 0 is_stmt 1
  79 0034 012C     		cmp	r4, #1
  80 0036 06D1     		bne	.L6
  81              		.loc 1 19 0 is_stmt 0 discriminator 1
  82 0038 0129     		cmp	r1, #1
  83 003a 04D1     		bne	.L6
  84              		.loc 1 19 0 discriminator 2
  85 003c 1AB9     		cbnz	r2, .L6
  86              		.loc 1 19 0 discriminator 3
  87 003e 13B9     		cbnz	r3, .L6
  88              		.loc 1 19 0 discriminator 4
  89 0040 002D     		cmp	r5, #0
  90 0042 00F0FF80 		beq	.L37
  91              	.L6:
  20:main.c        ****     if(sw1==0&&sw2==0&&sw3==1&&sw4==0&&sw5==0) return 4;
  92              		.loc 1 20 0 is_stmt 1
  93 0046 34B9     		cbnz	r4, .L7
  94              		.loc 1 20 0 is_stmt 0 discriminator 1
ARM GAS  C:\Users\acer\AppData\Local\Temp\ccQEWjNP.s 			page 3


  95 0048 29B9     		cbnz	r1, .L7
  96              		.loc 1 20 0 discriminator 2
  97 004a 012A     		cmp	r2, #1
  98 004c 03D1     		bne	.L7
  99              		.loc 1 20 0 discriminator 3
 100 004e 13B9     		cbnz	r3, .L7
 101              		.loc 1 20 0 discriminator 4
 102 0050 002D     		cmp	r5, #0
 103 0052 00F0F980 		beq	.L38
 104              	.L7:
  21:main.c        ****     if(sw1==1&&sw2==0&&sw3==1&&sw4==0&&sw5==0) return 5;
 105              		.loc 1 21 0 is_stmt 1
 106 0056 012C     		cmp	r4, #1
 107 0058 06D1     		bne	.L8
 108              		.loc 1 21 0 is_stmt 0 discriminator 1
 109 005a 29B9     		cbnz	r1, .L8
 110              		.loc 1 21 0 discriminator 2
 111 005c 012A     		cmp	r2, #1
 112 005e 03D1     		bne	.L8
 113              		.loc 1 21 0 discriminator 3
 114 0060 13B9     		cbnz	r3, .L8
 115              		.loc 1 21 0 discriminator 4
 116 0062 002D     		cmp	r5, #0
 117 0064 00F0F280 		beq	.L39
 118              	.L8:
  22:main.c        ****     if(sw1==0&&sw2==1&&sw3==1&&sw4==0&&sw5==0) return 6;
 119              		.loc 1 22 0 is_stmt 1
 120 0068 3CB9     		cbnz	r4, .L9
 121              		.loc 1 22 0 is_stmt 0 discriminator 1
 122 006a 0129     		cmp	r1, #1
 123 006c 05D1     		bne	.L9
 124              		.loc 1 22 0 discriminator 2
 125 006e 012A     		cmp	r2, #1
 126 0070 03D1     		bne	.L9
 127              		.loc 1 22 0 discriminator 3
 128 0072 13B9     		cbnz	r3, .L9
 129              		.loc 1 22 0 discriminator 4
 130 0074 002D     		cmp	r5, #0
 131 0076 00F0EB80 		beq	.L40
 132              	.L9:
  23:main.c        ****     if(sw1==1&&sw2==1&&sw3==1&&sw4==0&&sw5==0) return 7;
 133              		.loc 1 23 0 is_stmt 1
 134 007a 012C     		cmp	r4, #1
 135 007c 07D1     		bne	.L10
 136              		.loc 1 23 0 is_stmt 0 discriminator 1
 137 007e 0129     		cmp	r1, #1
 138 0080 05D1     		bne	.L10
 139              		.loc 1 23 0 discriminator 2
 140 0082 012A     		cmp	r2, #1
 141 0084 03D1     		bne	.L10
 142              		.loc 1 23 0 discriminator 3
 143 0086 13B9     		cbnz	r3, .L10
 144              		.loc 1 23 0 discriminator 4
 145 0088 002D     		cmp	r5, #0
 146 008a 00F0E380 		beq	.L41
 147              	.L10:
  24:main.c        ****     if(sw1==0&&sw2==0&&sw3==0&&sw4==1&&sw5==0) return 8;
ARM GAS  C:\Users\acer\AppData\Local\Temp\ccQEWjNP.s 			page 4


 148              		.loc 1 24 0 is_stmt 1
 149 008e 34B9     		cbnz	r4, .L11
 150              		.loc 1 24 0 is_stmt 0 discriminator 1
 151 0090 29B9     		cbnz	r1, .L11
 152              		.loc 1 24 0 discriminator 2
 153 0092 22B9     		cbnz	r2, .L11
 154              		.loc 1 24 0 discriminator 3
 155 0094 012B     		cmp	r3, #1
 156 0096 02D1     		bne	.L11
 157              		.loc 1 24 0 discriminator 4
 158 0098 002D     		cmp	r5, #0
 159 009a 00F0DD80 		beq	.L42
 160              	.L11:
  25:main.c        ****     if(sw1==1&&sw2==0&&sw3==0&&sw4==1&&sw5==0) return 9;
 161              		.loc 1 25 0 is_stmt 1
 162 009e 012C     		cmp	r4, #1
 163 00a0 06D1     		bne	.L12
 164              		.loc 1 25 0 is_stmt 0 discriminator 1
 165 00a2 29B9     		cbnz	r1, .L12
 166              		.loc 1 25 0 discriminator 2
 167 00a4 22B9     		cbnz	r2, .L12
 168              		.loc 1 25 0 discriminator 3
 169 00a6 012B     		cmp	r3, #1
 170 00a8 02D1     		bne	.L12
 171              		.loc 1 25 0 discriminator 4
 172 00aa 002D     		cmp	r5, #0
 173 00ac 00F0D680 		beq	.L43
 174              	.L12:
  26:main.c        ****     if(sw1==0&&sw2==1&&sw3==0&&sw4==1&&sw5==0) return 10;
 175              		.loc 1 26 0 is_stmt 1
 176 00b0 3CB9     		cbnz	r4, .L13
 177              		.loc 1 26 0 is_stmt 0 discriminator 1
 178 00b2 0129     		cmp	r1, #1
 179 00b4 05D1     		bne	.L13
 180              		.loc 1 26 0 discriminator 2
 181 00b6 22B9     		cbnz	r2, .L13
 182              		.loc 1 26 0 discriminator 3
 183 00b8 012B     		cmp	r3, #1
 184 00ba 02D1     		bne	.L13
 185              		.loc 1 26 0 discriminator 4
 186 00bc 002D     		cmp	r5, #0
 187 00be 00F0CF80 		beq	.L44
 188              	.L13:
  27:main.c        ****     if(sw1==1&&sw2==1&&sw3==0&&sw4==1&&sw5==0) return 11;
 189              		.loc 1 27 0 is_stmt 1
 190 00c2 012C     		cmp	r4, #1
 191 00c4 07D1     		bne	.L14
 192              		.loc 1 27 0 is_stmt 0 discriminator 1
 193 00c6 0129     		cmp	r1, #1
 194 00c8 05D1     		bne	.L14
 195              		.loc 1 27 0 discriminator 2
 196 00ca 22B9     		cbnz	r2, .L14
 197              		.loc 1 27 0 discriminator 3
 198 00cc 012B     		cmp	r3, #1
 199 00ce 02D1     		bne	.L14
 200              		.loc 1 27 0 discriminator 4
 201 00d0 002D     		cmp	r5, #0
ARM GAS  C:\Users\acer\AppData\Local\Temp\ccQEWjNP.s 			page 5


 202 00d2 00F0C780 		beq	.L45
 203              	.L14:
  28:main.c        ****     if(sw1==0&&sw2==0&&sw3==1&&sw4==1&&sw5==0) return 12;
 204              		.loc 1 28 0 is_stmt 1
 205 00d6 3CB9     		cbnz	r4, .L15
 206              		.loc 1 28 0 is_stmt 0 discriminator 1
 207 00d8 31B9     		cbnz	r1, .L15
 208              		.loc 1 28 0 discriminator 2
 209 00da 012A     		cmp	r2, #1
 210 00dc 04D1     		bne	.L15
 211              		.loc 1 28 0 discriminator 3
 212 00de 012B     		cmp	r3, #1
 213 00e0 02D1     		bne	.L15
 214              		.loc 1 28 0 discriminator 4
 215 00e2 002D     		cmp	r5, #0
 216 00e4 00F0C080 		beq	.L46
 217              	.L15:
  29:main.c        ****     if(sw1==1&&sw2==0&&sw3==1&&sw4==1&&sw5==0) return 13;
 218              		.loc 1 29 0 is_stmt 1
 219 00e8 012C     		cmp	r4, #1
 220 00ea 07D1     		bne	.L16
 221              		.loc 1 29 0 is_stmt 0 discriminator 1
 222 00ec 31B9     		cbnz	r1, .L16
 223              		.loc 1 29 0 discriminator 2
 224 00ee 012A     		cmp	r2, #1
 225 00f0 04D1     		bne	.L16
 226              		.loc 1 29 0 discriminator 3
 227 00f2 012B     		cmp	r3, #1
 228 00f4 02D1     		bne	.L16
 229              		.loc 1 29 0 discriminator 4
 230 00f6 002D     		cmp	r5, #0
 231 00f8 00F0B880 		beq	.L47
 232              	.L16:
  30:main.c        ****     if(sw1==0&&sw2==1&&sw3==1&&sw4==1&&sw5==0) return 14;
 233              		.loc 1 30 0 is_stmt 1
 234 00fc 44B9     		cbnz	r4, .L17
 235              		.loc 1 30 0 is_stmt 0 discriminator 1
 236 00fe 0129     		cmp	r1, #1
 237 0100 06D1     		bne	.L17
 238              		.loc 1 30 0 discriminator 2
 239 0102 012A     		cmp	r2, #1
 240 0104 04D1     		bne	.L17
 241              		.loc 1 30 0 discriminator 3
 242 0106 012B     		cmp	r3, #1
 243 0108 02D1     		bne	.L17
 244              		.loc 1 30 0 discriminator 4
 245 010a 002D     		cmp	r5, #0
 246 010c 00F0B080 		beq	.L48
 247              	.L17:
  31:main.c        ****     if(sw1==1&&sw2==1&&sw3==1&&sw4==1&&sw5==0) return 15;
 248              		.loc 1 31 0 is_stmt 1
 249 0110 012C     		cmp	r4, #1
 250 0112 08D1     		bne	.L18
 251              		.loc 1 31 0 is_stmt 0 discriminator 1
 252 0114 0129     		cmp	r1, #1
 253 0116 06D1     		bne	.L18
 254              		.loc 1 31 0 discriminator 2
ARM GAS  C:\Users\acer\AppData\Local\Temp\ccQEWjNP.s 			page 6


 255 0118 012A     		cmp	r2, #1
 256 011a 04D1     		bne	.L18
 257              		.loc 1 31 0 discriminator 3
 258 011c 012B     		cmp	r3, #1
 259 011e 02D1     		bne	.L18
 260              		.loc 1 31 0 discriminator 4
 261 0120 002D     		cmp	r5, #0
 262 0122 00F0A780 		beq	.L49
 263              	.L18:
  32:main.c        ****     if(sw1==0&&sw2==0&&sw3==0&&sw4==0&&sw5==1) return 16;
 264              		.loc 1 32 0 is_stmt 1
 265 0126 2CB9     		cbnz	r4, .L19
 266              		.loc 1 32 0 is_stmt 0 discriminator 1
 267 0128 21B9     		cbnz	r1, .L19
 268              		.loc 1 32 0 discriminator 2
 269 012a 1AB9     		cbnz	r2, .L19
 270              		.loc 1 32 0 discriminator 3
 271 012c 13B9     		cbnz	r3, .L19
 272              		.loc 1 32 0 discriminator 4
 273 012e 012D     		cmp	r5, #1
 274 0130 00F0A280 		beq	.L50
 275              	.L19:
  33:main.c        ****     if(sw1==1&&sw2==0&&sw3==0&&sw4==0&&sw5==1) return 17;
 276              		.loc 1 33 0 is_stmt 1
 277 0134 012C     		cmp	r4, #1
 278 0136 05D1     		bne	.L20
 279              		.loc 1 33 0 is_stmt 0 discriminator 1
 280 0138 21B9     		cbnz	r1, .L20
 281              		.loc 1 33 0 discriminator 2
 282 013a 1AB9     		cbnz	r2, .L20
 283              		.loc 1 33 0 discriminator 3
 284 013c 13B9     		cbnz	r3, .L20
 285              		.loc 1 33 0 discriminator 4
 286 013e 012D     		cmp	r5, #1
 287 0140 00F09C80 		beq	.L51
 288              	.L20:
  34:main.c        ****     if(sw1==0&&sw2==1&&sw3==0&&sw4==0&&sw5==1) return 18;
 289              		.loc 1 34 0 is_stmt 1
 290 0144 34B9     		cbnz	r4, .L21
 291              		.loc 1 34 0 is_stmt 0 discriminator 1
 292 0146 0129     		cmp	r1, #1
 293 0148 04D1     		bne	.L21
 294              		.loc 1 34 0 discriminator 2
 295 014a 1AB9     		cbnz	r2, .L21
 296              		.loc 1 34 0 discriminator 3
 297 014c 13B9     		cbnz	r3, .L21
 298              		.loc 1 34 0 discriminator 4
 299 014e 012D     		cmp	r5, #1
 300 0150 00F09680 		beq	.L52
 301              	.L21:
  35:main.c        ****     if(sw1==1&&sw2==1&&sw3==0&&sw4==0&&sw5==1) return 19;
 302              		.loc 1 35 0 is_stmt 1
 303 0154 012C     		cmp	r4, #1
 304 0156 06D1     		bne	.L22
 305              		.loc 1 35 0 is_stmt 0 discriminator 1
 306 0158 0129     		cmp	r1, #1
 307 015a 04D1     		bne	.L22
ARM GAS  C:\Users\acer\AppData\Local\Temp\ccQEWjNP.s 			page 7


 308              		.loc 1 35 0 discriminator 2
 309 015c 1AB9     		cbnz	r2, .L22
 310              		.loc 1 35 0 discriminator 3
 311 015e 13B9     		cbnz	r3, .L22
 312              		.loc 1 35 0 discriminator 4
 313 0160 012D     		cmp	r5, #1
 314 0162 00F08F80 		beq	.L53
 315              	.L22:
  36:main.c        ****     if(sw1==0&&sw2==0&&sw3==1&&sw4==0&&sw5==1) return 20;
 316              		.loc 1 36 0 is_stmt 1
 317 0166 34B9     		cbnz	r4, .L23
 318              		.loc 1 36 0 is_stmt 0 discriminator 1
 319 0168 29B9     		cbnz	r1, .L23
 320              		.loc 1 36 0 discriminator 2
 321 016a 012A     		cmp	r2, #1
 322 016c 03D1     		bne	.L23
 323              		.loc 1 36 0 discriminator 3
 324 016e 13B9     		cbnz	r3, .L23
 325              		.loc 1 36 0 discriminator 4
 326 0170 012D     		cmp	r5, #1
 327 0172 00F08980 		beq	.L54
 328              	.L23:
  37:main.c        ****     if(sw1==1&&sw2==0&&sw3==1&&sw4==0&&sw5==1) return 21;
 329              		.loc 1 37 0 is_stmt 1
 330 0176 012C     		cmp	r4, #1
 331 0178 06D1     		bne	.L24
 332              		.loc 1 37 0 is_stmt 0 discriminator 1
 333 017a 29B9     		cbnz	r1, .L24
 334              		.loc 1 37 0 discriminator 2
 335 017c 012A     		cmp	r2, #1
 336 017e 03D1     		bne	.L24
 337              		.loc 1 37 0 discriminator 3
 338 0180 13B9     		cbnz	r3, .L24
 339              		.loc 1 37 0 discriminator 4
 340 0182 012D     		cmp	r5, #1
 341 0184 00F08280 		beq	.L55
 342              	.L24:
  38:main.c        ****     if(sw1==0&&sw2==1&&sw3==1&&sw4==0&&sw5==1) return 22;
 343              		.loc 1 38 0 is_stmt 1
 344 0188 34B9     		cbnz	r4, .L25
 345              		.loc 1 38 0 is_stmt 0 discriminator 1
 346 018a 0129     		cmp	r1, #1
 347 018c 04D1     		bne	.L25
 348              		.loc 1 38 0 discriminator 2
 349 018e 012A     		cmp	r2, #1
 350 0190 02D1     		bne	.L25
 351              		.loc 1 38 0 discriminator 3
 352 0192 0BB9     		cbnz	r3, .L25
 353              		.loc 1 38 0 discriminator 4
 354 0194 012D     		cmp	r5, #1
 355 0196 7BD0     		beq	.L56
 356              	.L25:
  39:main.c        ****     if(sw1==1&&sw2==1&&sw3==1&&sw4==0&&sw5==1) return 23;
 357              		.loc 1 39 0 is_stmt 1
 358 0198 012C     		cmp	r4, #1
 359 019a 06D1     		bne	.L26
 360              		.loc 1 39 0 is_stmt 0 discriminator 1
ARM GAS  C:\Users\acer\AppData\Local\Temp\ccQEWjNP.s 			page 8


 361 019c 0129     		cmp	r1, #1
 362 019e 04D1     		bne	.L26
 363              		.loc 1 39 0 discriminator 2
 364 01a0 012A     		cmp	r2, #1
 365 01a2 02D1     		bne	.L26
 366              		.loc 1 39 0 discriminator 3
 367 01a4 0BB9     		cbnz	r3, .L26
 368              		.loc 1 39 0 discriminator 4
 369 01a6 012D     		cmp	r5, #1
 370 01a8 74D0     		beq	.L57
 371              	.L26:
  40:main.c        ****     if(sw1==0&&sw2==0&&sw3==0&&sw4==1&&sw5==1) return 24;
 372              		.loc 1 40 0 is_stmt 1
 373 01aa 2CB9     		cbnz	r4, .L27
 374              		.loc 1 40 0 is_stmt 0 discriminator 1
 375 01ac 21B9     		cbnz	r1, .L27
 376              		.loc 1 40 0 discriminator 2
 377 01ae 1AB9     		cbnz	r2, .L27
 378              		.loc 1 40 0 discriminator 3
 379 01b0 012B     		cmp	r3, #1
 380 01b2 01D1     		bne	.L27
 381              		.loc 1 40 0 discriminator 4
 382 01b4 012D     		cmp	r5, #1
 383 01b6 6FD0     		beq	.L58
 384              	.L27:
  41:main.c        ****     if(sw1==1&&sw2==0&&sw3==0&&sw4==1&&sw5==1) return 25;
 385              		.loc 1 41 0 is_stmt 1
 386 01b8 012C     		cmp	r4, #1
 387 01ba 05D1     		bne	.L28
 388              		.loc 1 41 0 is_stmt 0 discriminator 1
 389 01bc 21B9     		cbnz	r1, .L28
 390              		.loc 1 41 0 discriminator 2
 391 01be 1AB9     		cbnz	r2, .L28
 392              		.loc 1 41 0 discriminator 3
 393 01c0 012B     		cmp	r3, #1
 394 01c2 01D1     		bne	.L28
 395              		.loc 1 41 0 discriminator 4
 396 01c4 012D     		cmp	r5, #1
 397 01c6 69D0     		beq	.L59
 398              	.L28:
  42:main.c        ****     if(sw1==0&&sw2==1&&sw3==0&&sw4==1&&sw5==1) return 26;
 399              		.loc 1 42 0 is_stmt 1
 400 01c8 34B9     		cbnz	r4, .L29
 401              		.loc 1 42 0 is_stmt 0 discriminator 1
 402 01ca 0129     		cmp	r1, #1
 403 01cc 04D1     		bne	.L29
 404              		.loc 1 42 0 discriminator 2
 405 01ce 1AB9     		cbnz	r2, .L29
 406              		.loc 1 42 0 discriminator 3
 407 01d0 012B     		cmp	r3, #1
 408 01d2 01D1     		bne	.L29
 409              		.loc 1 42 0 discriminator 4
 410 01d4 012D     		cmp	r5, #1
 411 01d6 63D0     		beq	.L60
 412              	.L29:
  43:main.c        ****     if(sw1==1&&sw2==1&&sw3==0&&sw4==1&&sw5==1) return 27;
 413              		.loc 1 43 0 is_stmt 1
ARM GAS  C:\Users\acer\AppData\Local\Temp\ccQEWjNP.s 			page 9


 414 01d8 012C     		cmp	r4, #1
 415 01da 06D1     		bne	.L30
 416              		.loc 1 43 0 is_stmt 0 discriminator 1
 417 01dc 0129     		cmp	r1, #1
 418 01de 04D1     		bne	.L30
 419              		.loc 1 43 0 discriminator 2
 420 01e0 1AB9     		cbnz	r2, .L30
 421              		.loc 1 43 0 discriminator 3
 422 01e2 012B     		cmp	r3, #1
 423 01e4 01D1     		bne	.L30
 424              		.loc 1 43 0 discriminator 4
 425 01e6 012D     		cmp	r5, #1
 426 01e8 5CD0     		beq	.L61
 427              	.L30:
  44:main.c        ****     if(sw1==0&&sw2==0&&sw3==1&&sw4==1&&sw5==1) return 28;
 428              		.loc 1 44 0 is_stmt 1
 429 01ea 34B9     		cbnz	r4, .L31
 430              		.loc 1 44 0 is_stmt 0 discriminator 1
 431 01ec 29B9     		cbnz	r1, .L31
 432              		.loc 1 44 0 discriminator 2
 433 01ee 012A     		cmp	r2, #1
 434 01f0 03D1     		bne	.L31
 435              		.loc 1 44 0 discriminator 3
 436 01f2 012B     		cmp	r3, #1
 437 01f4 01D1     		bne	.L31
 438              		.loc 1 44 0 discriminator 4
 439 01f6 012D     		cmp	r5, #1
 440 01f8 56D0     		beq	.L62
 441              	.L31:
  45:main.c        ****     if(sw1==1&&sw2==0&&sw3==1&&sw4==1&&sw5==1) return 29;
 442              		.loc 1 45 0 is_stmt 1
 443 01fa 012C     		cmp	r4, #1
 444 01fc 06D1     		bne	.L32
 445              		.loc 1 45 0 is_stmt 0 discriminator 1
 446 01fe 29B9     		cbnz	r1, .L32
 447              		.loc 1 45 0 discriminator 2
 448 0200 012A     		cmp	r2, #1
 449 0202 03D1     		bne	.L32
 450              		.loc 1 45 0 discriminator 3
 451 0204 012B     		cmp	r3, #1
 452 0206 01D1     		bne	.L32
 453              		.loc 1 45 0 discriminator 4
 454 0208 012D     		cmp	r5, #1
 455 020a 4FD0     		beq	.L63
 456              	.L32:
  46:main.c        ****     if(sw1==0&&sw2==1&&sw3==1&&sw4==1&&sw5==1) return 30;
 457              		.loc 1 46 0 is_stmt 1
 458 020c 3CB9     		cbnz	r4, .L33
 459              		.loc 1 46 0 is_stmt 0 discriminator 1
 460 020e 0129     		cmp	r1, #1
 461 0210 05D1     		bne	.L33
 462              		.loc 1 46 0 discriminator 2
 463 0212 012A     		cmp	r2, #1
 464 0214 03D1     		bne	.L33
 465              		.loc 1 46 0 discriminator 3
 466 0216 012B     		cmp	r3, #1
 467 0218 01D1     		bne	.L33
ARM GAS  C:\Users\acer\AppData\Local\Temp\ccQEWjNP.s 			page 10


 468              		.loc 1 46 0 discriminator 4
 469 021a 012D     		cmp	r5, #1
 470 021c 48D0     		beq	.L64
 471              	.L33:
  47:main.c        ****     if(sw1==1&&sw2==1&&sw3==1&&sw4==1&&sw5==1) return 31;
 472              		.loc 1 47 0 is_stmt 1
 473 021e 012C     		cmp	r4, #1
 474 0220 48D1     		bne	.L65
 475              		.loc 1 47 0 is_stmt 0 discriminator 1
 476 0222 0129     		cmp	r1, #1
 477 0224 49D1     		bne	.L66
 478              		.loc 1 47 0 discriminator 2
 479 0226 012A     		cmp	r2, #1
 480 0228 4AD1     		bne	.L67
 481              		.loc 1 47 0 discriminator 3
 482 022a 012B     		cmp	r3, #1
 483 022c 4BD1     		bne	.L68
 484              		.loc 1 47 0 discriminator 4
 485 022e 012D     		cmp	r5, #1
 486 0230 4CD0     		beq	.L69
  48:main.c        ****     return -1;
 487              		.loc 1 48 0 is_stmt 1
 488 0232 4FF0FF30 		mov	r0, #-1
 489              	.LVL1:
 490 0236 4AE0     		b	.L3
 491              	.LVL2:
 492              	.L34:
  16:main.c        ****     if(sw1==1&&sw2==0&&sw3==0&&sw4==0&&sw5==0) return 1;
 493              		.loc 1 16 0
 494 0238 0020     		movs	r0, #0
 495              	.LVL3:
 496 023a 48E0     		b	.L3
 497              	.LVL4:
 498              	.L35:
  17:main.c        ****     if(sw1==0&&sw2==1&&sw3==0&&sw4==0&&sw5==0) return 2;
 499              		.loc 1 17 0
 500 023c 0120     		movs	r0, #1
 501              	.LVL5:
 502 023e 46E0     		b	.L3
 503              	.LVL6:
 504              	.L36:
  18:main.c        ****     if(sw1==1&&sw2==1&&sw3==0&&sw4==0&&sw5==0) return 3;
 505              		.loc 1 18 0
 506 0240 0220     		movs	r0, #2
 507              	.LVL7:
 508 0242 44E0     		b	.L3
 509              	.LVL8:
 510              	.L37:
  19:main.c        ****     if(sw1==0&&sw2==0&&sw3==1&&sw4==0&&sw5==0) return 4;
 511              		.loc 1 19 0
 512 0244 0320     		movs	r0, #3
 513              	.LVL9:
 514 0246 42E0     		b	.L3
 515              	.LVL10:
 516              	.L38:
  20:main.c        ****     if(sw1==1&&sw2==0&&sw3==1&&sw4==0&&sw5==0) return 5;
 517              		.loc 1 20 0
ARM GAS  C:\Users\acer\AppData\Local\Temp\ccQEWjNP.s 			page 11


 518 0248 0420     		movs	r0, #4
 519              	.LVL11:
 520 024a 40E0     		b	.L3
 521              	.LVL12:
 522              	.L39:
  21:main.c        ****     if(sw1==0&&sw2==1&&sw3==1&&sw4==0&&sw5==0) return 6;
 523              		.loc 1 21 0
 524 024c 0520     		movs	r0, #5
 525              	.LVL13:
 526 024e 3EE0     		b	.L3
 527              	.LVL14:
 528              	.L40:
  22:main.c        ****     if(sw1==1&&sw2==1&&sw3==1&&sw4==0&&sw5==0) return 7;
 529              		.loc 1 22 0
 530 0250 0620     		movs	r0, #6
 531              	.LVL15:
 532 0252 3CE0     		b	.L3
 533              	.LVL16:
 534              	.L41:
  23:main.c        ****     if(sw1==0&&sw2==0&&sw3==0&&sw4==1&&sw5==0) return 8;
 535              		.loc 1 23 0
 536 0254 0720     		movs	r0, #7
 537              	.LVL17:
 538 0256 3AE0     		b	.L3
 539              	.LVL18:
 540              	.L42:
  24:main.c        ****     if(sw1==1&&sw2==0&&sw3==0&&sw4==1&&sw5==0) return 9;
 541              		.loc 1 24 0
 542 0258 0820     		movs	r0, #8
 543              	.LVL19:
 544 025a 38E0     		b	.L3
 545              	.LVL20:
 546              	.L43:
  25:main.c        ****     if(sw1==0&&sw2==1&&sw3==0&&sw4==1&&sw5==0) return 10;
 547              		.loc 1 25 0
 548 025c 0920     		movs	r0, #9
 549              	.LVL21:
 550 025e 36E0     		b	.L3
 551              	.LVL22:
 552              	.L44:
  26:main.c        ****     if(sw1==1&&sw2==1&&sw3==0&&sw4==1&&sw5==0) return 11;
 553              		.loc 1 26 0
 554 0260 0A20     		movs	r0, #10
 555              	.LVL23:
 556 0262 34E0     		b	.L3
 557              	.LVL24:
 558              	.L45:
  27:main.c        ****     if(sw1==0&&sw2==0&&sw3==1&&sw4==1&&sw5==0) return 12;
 559              		.loc 1 27 0
 560 0264 0B20     		movs	r0, #11
 561              	.LVL25:
 562 0266 32E0     		b	.L3
 563              	.LVL26:
 564              	.L46:
  28:main.c        ****     if(sw1==1&&sw2==0&&sw3==1&&sw4==1&&sw5==0) return 13;
 565              		.loc 1 28 0
 566 0268 0C20     		movs	r0, #12
ARM GAS  C:\Users\acer\AppData\Local\Temp\ccQEWjNP.s 			page 12


 567              	.LVL27:
 568 026a 30E0     		b	.L3
 569              	.LVL28:
 570              	.L47:
  29:main.c        ****     if(sw1==0&&sw2==1&&sw3==1&&sw4==1&&sw5==0) return 14;
 571              		.loc 1 29 0
 572 026c 0D20     		movs	r0, #13
 573              	.LVL29:
 574 026e 2EE0     		b	.L3
 575              	.LVL30:
 576              	.L48:
  30:main.c        ****     if(sw1==1&&sw2==1&&sw3==1&&sw4==1&&sw5==0) return 15;
 577              		.loc 1 30 0
 578 0270 0E20     		movs	r0, #14
 579              	.LVL31:
 580 0272 2CE0     		b	.L3
 581              	.LVL32:
 582              	.L49:
  31:main.c        ****     if(sw1==0&&sw2==0&&sw3==0&&sw4==0&&sw5==1) return 16;
 583              		.loc 1 31 0
 584 0274 0F20     		movs	r0, #15
 585              	.LVL33:
 586 0276 2AE0     		b	.L3
 587              	.LVL34:
 588              	.L50:
  32:main.c        ****     if(sw1==1&&sw2==0&&sw3==0&&sw4==0&&sw5==1) return 17;
 589              		.loc 1 32 0
 590 0278 1020     		movs	r0, #16
 591              	.LVL35:
 592 027a 28E0     		b	.L3
 593              	.LVL36:
 594              	.L51:
  33:main.c        ****     if(sw1==0&&sw2==1&&sw3==0&&sw4==0&&sw5==1) return 18;
 595              		.loc 1 33 0
 596 027c 1120     		movs	r0, #17
 597              	.LVL37:
 598 027e 26E0     		b	.L3
 599              	.LVL38:
 600              	.L52:
  34:main.c        ****     if(sw1==1&&sw2==1&&sw3==0&&sw4==0&&sw5==1) return 19;
 601              		.loc 1 34 0
 602 0280 1220     		movs	r0, #18
 603              	.LVL39:
 604 0282 24E0     		b	.L3
 605              	.LVL40:
 606              	.L53:
  35:main.c        ****     if(sw1==0&&sw2==0&&sw3==1&&sw4==0&&sw5==1) return 20;
 607              		.loc 1 35 0
 608 0284 1320     		movs	r0, #19
 609              	.LVL41:
 610 0286 22E0     		b	.L3
 611              	.LVL42:
 612              	.L54:
  36:main.c        ****     if(sw1==1&&sw2==0&&sw3==1&&sw4==0&&sw5==1) return 21;
 613              		.loc 1 36 0
 614 0288 1420     		movs	r0, #20
 615              	.LVL43:
ARM GAS  C:\Users\acer\AppData\Local\Temp\ccQEWjNP.s 			page 13


 616 028a 20E0     		b	.L3
 617              	.LVL44:
 618              	.L55:
  37:main.c        ****     if(sw1==0&&sw2==1&&sw3==1&&sw4==0&&sw5==1) return 22;
 619              		.loc 1 37 0
 620 028c 1520     		movs	r0, #21
 621              	.LVL45:
 622 028e 1EE0     		b	.L3
 623              	.LVL46:
 624              	.L56:
  38:main.c        ****     if(sw1==1&&sw2==1&&sw3==1&&sw4==0&&sw5==1) return 23;
 625              		.loc 1 38 0
 626 0290 1620     		movs	r0, #22
 627              	.LVL47:
 628 0292 1CE0     		b	.L3
 629              	.LVL48:
 630              	.L57:
  39:main.c        ****     if(sw1==0&&sw2==0&&sw3==0&&sw4==1&&sw5==1) return 24;
 631              		.loc 1 39 0
 632 0294 1720     		movs	r0, #23
 633              	.LVL49:
 634 0296 1AE0     		b	.L3
 635              	.LVL50:
 636              	.L58:
  40:main.c        ****     if(sw1==1&&sw2==0&&sw3==0&&sw4==1&&sw5==1) return 25;
 637              		.loc 1 40 0
 638 0298 1820     		movs	r0, #24
 639              	.LVL51:
 640 029a 18E0     		b	.L3
 641              	.LVL52:
 642              	.L59:
  41:main.c        ****     if(sw1==0&&sw2==1&&sw3==0&&sw4==1&&sw5==1) return 26;
 643              		.loc 1 41 0
 644 029c 1920     		movs	r0, #25
 645              	.LVL53:
 646 029e 16E0     		b	.L3
 647              	.LVL54:
 648              	.L60:
  42:main.c        ****     if(sw1==1&&sw2==1&&sw3==0&&sw4==1&&sw5==1) return 27;
 649              		.loc 1 42 0
 650 02a0 1A20     		movs	r0, #26
 651              	.LVL55:
 652 02a2 14E0     		b	.L3
 653              	.LVL56:
 654              	.L61:
  43:main.c        ****     if(sw1==0&&sw2==0&&sw3==1&&sw4==1&&sw5==1) return 28;
 655              		.loc 1 43 0
 656 02a4 1B20     		movs	r0, #27
 657              	.LVL57:
 658 02a6 12E0     		b	.L3
 659              	.LVL58:
 660              	.L62:
  44:main.c        ****     if(sw1==1&&sw2==0&&sw3==1&&sw4==1&&sw5==1) return 29;
 661              		.loc 1 44 0
 662 02a8 1C20     		movs	r0, #28
 663              	.LVL59:
 664 02aa 10E0     		b	.L3
ARM GAS  C:\Users\acer\AppData\Local\Temp\ccQEWjNP.s 			page 14


 665              	.LVL60:
 666              	.L63:
  45:main.c        ****     if(sw1==0&&sw2==1&&sw3==1&&sw4==1&&sw5==1) return 30;
 667              		.loc 1 45 0
 668 02ac 1D20     		movs	r0, #29
 669              	.LVL61:
 670 02ae 0EE0     		b	.L3
 671              	.LVL62:
 672              	.L64:
  46:main.c        ****     if(sw1==1&&sw2==1&&sw3==1&&sw4==1&&sw5==1) return 31;
 673              		.loc 1 46 0
 674 02b0 1E20     		movs	r0, #30
 675              	.LVL63:
 676 02b2 0CE0     		b	.L3
 677              	.LVL64:
 678              	.L65:
 679              		.loc 1 48 0
 680 02b4 4FF0FF30 		mov	r0, #-1
 681              	.LVL65:
 682 02b8 09E0     		b	.L3
 683              	.LVL66:
 684              	.L66:
 685 02ba 4FF0FF30 		mov	r0, #-1
 686              	.LVL67:
 687 02be 06E0     		b	.L3
 688              	.LVL68:
 689              	.L67:
 690 02c0 4FF0FF30 		mov	r0, #-1
 691              	.LVL69:
 692 02c4 03E0     		b	.L3
 693              	.LVL70:
 694              	.L68:
 695 02c6 4FF0FF30 		mov	r0, #-1
 696              	.LVL71:
 697 02ca 00E0     		b	.L3
 698              	.LVL72:
 699              	.L69:
  47:main.c        ****     return -1;
 700              		.loc 1 47 0
 701 02cc 1F20     		movs	r0, #31
 702              	.LVL73:
 703              	.L3:
  49:main.c        **** }
 704              		.loc 1 49 0
 705 02ce 30BC     		pop	{r4, r5}
 706              		.cfi_restore 5
 707              		.cfi_restore 4
 708              		.cfi_def_cfa_offset 0
 709              	.LVL74:
 710 02d0 7047     		bx	lr
 711              		.cfi_endproc
 712              	.LFE63:
 713              		.size	getValue, .-getValue
 714 02d2 00BF     		.section	.text.main,"ax",%progbits
 715              		.align	2
 716              		.global	main
 717              		.thumb
ARM GAS  C:\Users\acer\AppData\Local\Temp\ccQEWjNP.s 			page 15


 718              		.thumb_func
 719              		.type	main, %function
 720              	main:
 721              	.LFB64:
  50:main.c        **** 
  51:main.c        **** 
  52:main.c        **** int main(void){
 722              		.loc 1 52 0
 723              		.cfi_startproc
 724              		@ args = 0, pretend = 0, frame = 0
 725              		@ frame_needed = 0, uses_anonymous_args = 0
 726 0000 2DE9F041 		push	{r4, r5, r6, r7, r8, lr}
 727              		.cfi_def_cfa_offset 24
 728              		.cfi_offset 4, -24
 729              		.cfi_offset 5, -20
 730              		.cfi_offset 6, -16
 731              		.cfi_offset 7, -12
 732              		.cfi_offset 8, -8
 733              		.cfi_offset 14, -4
 734 0004 82B0     		sub	sp, sp, #8
 735              		.cfi_def_cfa_offset 32
  53:main.c        ****     CyGlobalIntEnable; /* Enable global interrupts. */
 736              		.loc 1 53 0
 737              		.syntax unified
 738              	@ 53 "main.c" 1
 739 0006 62B6     		CPSIE   i
 740              	@ 0 "" 2
  54:main.c        ****     LCD_Start();
 741              		.loc 1 54 0
 742              		.thumb
 743              		.syntax unified
 744 0008 FFF7FEFF 		bl	LCD_Start
 745              	.LVL75:
 746              	.L73:
  55:main.c        ****     int sw1,sw2,sw3,sw4,sw5;
  56:main.c        ****     for(;;){
  57:main.c        ****         sw1=Pin_1_Read();
 747              		.loc 1 57 0
 748 000c FFF7FEFF 		bl	Pin_1_Read
 749              	.LVL76:
 750 0010 0446     		mov	r4, r0
 751              	.LVL77:
  58:main.c        ****         sw2=Pin_2_Read();
 752              		.loc 1 58 0
 753 0012 FFF7FEFF 		bl	Pin_2_Read
 754              	.LVL78:
 755 0016 0546     		mov	r5, r0
 756              	.LVL79:
  59:main.c        ****         sw3=Pin_3_Read();
 757              		.loc 1 59 0
 758 0018 FFF7FEFF 		bl	Pin_3_Read
 759              	.LVL80:
 760 001c 0646     		mov	r6, r0
 761              	.LVL81:
  60:main.c        ****         sw4=Pin_4_Read();
 762              		.loc 1 60 0
 763 001e FFF7FEFF 		bl	Pin_4_Read
ARM GAS  C:\Users\acer\AppData\Local\Temp\ccQEWjNP.s 			page 16


 764              	.LVL82:
 765 0022 0746     		mov	r7, r0
 766              	.LVL83:
  61:main.c        ****         sw5=Pin_5_Read();
 767              		.loc 1 61 0
 768 0024 FFF7FEFF 		bl	Pin_5_Read
 769              	.LVL84:
 770 0028 8046     		mov	r8, r0
 771              	.LVL85:
  62:main.c        ****         CyDelay(500);
 772              		.loc 1 62 0
 773 002a 4FF4FA70 		mov	r0, #500
 774              	.LVL86:
 775 002e FFF7FEFF 		bl	CyDelay
 776              	.LVL87:
  63:main.c        ****         LCD_ClearDisplay();
 777              		.loc 1 63 0
 778 0032 0120     		movs	r0, #1
 779 0034 FFF7FEFF 		bl	LCD_WriteControl
 780              	.LVL88:
  64:main.c        ****       switch(getValue(sw1,sw2,sw3,sw4,sw5)){
 781              		.loc 1 64 0
 782 0038 CDF80080 		str	r8, [sp]
 783 003c 3B46     		mov	r3, r7
 784 003e 3246     		mov	r2, r6
 785 0040 2946     		mov	r1, r5
 786 0042 2046     		mov	r0, r4
 787 0044 FFF7FEFF 		bl	getValue
 788              	.LVL89:
 789 0048 1F28     		cmp	r0, #31
 790 004a DFD8     		bhi	.L73
 791 004c DFE810F0 		tbh	[pc, r0, lsl #1]
 792              	.L75:
 793 0050 2000     		.2byte	(.L74-.L75)/2
 794 0052 2F00     		.2byte	(.L76-.L75)/2
 795 0054 3E00     		.2byte	(.L77-.L75)/2
 796 0056 4D00     		.2byte	(.L78-.L75)/2
 797 0058 5C00     		.2byte	(.L79-.L75)/2
 798 005a 6B00     		.2byte	(.L80-.L75)/2
 799 005c 7A00     		.2byte	(.L81-.L75)/2
 800 005e 8900     		.2byte	(.L82-.L75)/2
 801 0060 9800     		.2byte	(.L83-.L75)/2
 802 0062 A700     		.2byte	(.L84-.L75)/2
 803 0064 B600     		.2byte	(.L85-.L75)/2
 804 0066 C500     		.2byte	(.L86-.L75)/2
 805 0068 D400     		.2byte	(.L87-.L75)/2
 806 006a E300     		.2byte	(.L88-.L75)/2
 807 006c F200     		.2byte	(.L89-.L75)/2
 808 006e 0101     		.2byte	(.L90-.L75)/2
 809 0070 1001     		.2byte	(.L91-.L75)/2
 810 0072 1F01     		.2byte	(.L92-.L75)/2
 811 0074 2E01     		.2byte	(.L93-.L75)/2
 812 0076 3D01     		.2byte	(.L94-.L75)/2
 813 0078 4C01     		.2byte	(.L95-.L75)/2
 814 007a 5B01     		.2byte	(.L96-.L75)/2
 815 007c 6A01     		.2byte	(.L97-.L75)/2
 816 007e 7901     		.2byte	(.L98-.L75)/2
ARM GAS  C:\Users\acer\AppData\Local\Temp\ccQEWjNP.s 			page 17


 817 0080 8801     		.2byte	(.L99-.L75)/2
 818 0082 9701     		.2byte	(.L100-.L75)/2
 819 0084 A601     		.2byte	(.L101-.L75)/2
 820 0086 B501     		.2byte	(.L102-.L75)/2
 821 0088 3402     		.2byte	(.L103-.L75)/2
 822 008a 4302     		.2byte	(.L104-.L75)/2
 823 008c 5202     		.2byte	(.L105-.L75)/2
 824 008e 6102     		.2byte	(.L106-.L75)/2
 825              		.p2align 1
 826              	.L74:
  65:main.c        ****         case 0:
  66:main.c        ****             LCD_Position(0,1);
 827              		.loc 1 66 0
 828 0090 0121     		movs	r1, #1
 829 0092 0020     		movs	r0, #0
 830 0094 FFF7FEFF 		bl	LCD_Position
 831              	.LVL90:
  67:main.c        ****             LCD_PrintString("FELIPE ALVARADO"); 
 832              		.loc 1 67 0
 833 0098 CF48     		ldr	r0, .L109
 834 009a FFF7FEFF 		bl	LCD_PrintString
 835              	.LVL91:
  68:main.c        ****             LCD_Position(1,4);
 836              		.loc 1 68 0
 837 009e 0421     		movs	r1, #4
 838 00a0 0120     		movs	r0, #1
 839 00a2 FFF7FEFF 		bl	LCD_Position
 840              	.LVL92:
  69:main.c        ****             LCD_PrintString("GALICIA");
 841              		.loc 1 69 0
 842 00a6 CD48     		ldr	r0, .L109+4
 843 00a8 FFF7FEFF 		bl	LCD_PrintString
 844              	.LVL93:
  70:main.c        ****             break;
 845              		.loc 1 70 0
 846 00ac AEE7     		b	.L73
 847              	.L76:
  71:main.c        ****             
  72:main.c        ****         case 1:
  73:main.c        ****             LCD_Position(0,7);
 848              		.loc 1 73 0
 849 00ae 0721     		movs	r1, #7
 850 00b0 0020     		movs	r0, #0
 851 00b2 FFF7FEFF 		bl	LCD_Position
 852              	.LVL94:
  74:main.c        ****             LCD_PrintString("1");
 853              		.loc 1 74 0
 854 00b6 CA48     		ldr	r0, .L109+8
 855 00b8 FFF7FEFF 		bl	LCD_PrintString
 856              	.LVL95:
  75:main.c        ****             LCD_Position(1,6);
 857              		.loc 1 75 0
 858 00bc 0621     		movs	r1, #6
 859 00be 0120     		movs	r0, #1
 860 00c0 FFF7FEFF 		bl	LCD_Position
 861              	.LVL96:
  76:main.c        ****             LCD_PrintString("UNO");
ARM GAS  C:\Users\acer\AppData\Local\Temp\ccQEWjNP.s 			page 18


 862              		.loc 1 76 0
 863 00c4 C748     		ldr	r0, .L109+12
 864 00c6 FFF7FEFF 		bl	LCD_PrintString
 865              	.LVL97:
  77:main.c        ****             break;            
 866              		.loc 1 77 0
 867 00ca 9FE7     		b	.L73
 868              	.L77:
  78:main.c        ****             
  79:main.c        ****         case 2:
  80:main.c        ****             LCD_Position(0,7);
 869              		.loc 1 80 0
 870 00cc 0721     		movs	r1, #7
 871 00ce 0020     		movs	r0, #0
 872 00d0 FFF7FEFF 		bl	LCD_Position
 873              	.LVL98:
  81:main.c        ****             LCD_PrintString("2");
 874              		.loc 1 81 0
 875 00d4 C448     		ldr	r0, .L109+16
 876 00d6 FFF7FEFF 		bl	LCD_PrintString
 877              	.LVL99:
  82:main.c        ****             LCD_Position(1,6);
 878              		.loc 1 82 0
 879 00da 0621     		movs	r1, #6
 880 00dc 0120     		movs	r0, #1
 881 00de FFF7FEFF 		bl	LCD_Position
 882              	.LVL100:
  83:main.c        ****             LCD_PrintString("DOS");
 883              		.loc 1 83 0
 884 00e2 C248     		ldr	r0, .L109+20
 885 00e4 FFF7FEFF 		bl	LCD_PrintString
 886              	.LVL101:
  84:main.c        ****             break;  
 887              		.loc 1 84 0
 888 00e8 90E7     		b	.L73
 889              	.L78:
  85:main.c        ****             
  86:main.c        ****         case 3:
  87:main.c        ****             LCD_Position(0,7);
 890              		.loc 1 87 0
 891 00ea 0721     		movs	r1, #7
 892 00ec 0020     		movs	r0, #0
 893 00ee FFF7FEFF 		bl	LCD_Position
 894              	.LVL102:
  88:main.c        ****             LCD_PrintString("3");
 895              		.loc 1 88 0
 896 00f2 BF48     		ldr	r0, .L109+24
 897 00f4 FFF7FEFF 		bl	LCD_PrintString
 898              	.LVL103:
  89:main.c        ****             LCD_Position(1,5);
 899              		.loc 1 89 0
 900 00f8 0521     		movs	r1, #5
 901 00fa 0120     		movs	r0, #1
 902 00fc FFF7FEFF 		bl	LCD_Position
 903              	.LVL104:
  90:main.c        ****             LCD_PrintString("TRES");
 904              		.loc 1 90 0
ARM GAS  C:\Users\acer\AppData\Local\Temp\ccQEWjNP.s 			page 19


 905 0100 BC48     		ldr	r0, .L109+28
 906 0102 FFF7FEFF 		bl	LCD_PrintString
 907              	.LVL105:
  91:main.c        ****             break;            
 908              		.loc 1 91 0
 909 0106 81E7     		b	.L73
 910              	.L79:
  92:main.c        ****             
  93:main.c        ****         case 4:
  94:main.c        ****             LCD_Position(0,7);
 911              		.loc 1 94 0
 912 0108 0721     		movs	r1, #7
 913 010a 0020     		movs	r0, #0
 914 010c FFF7FEFF 		bl	LCD_Position
 915              	.LVL106:
  95:main.c        ****             LCD_PrintString("4");
 916              		.loc 1 95 0
 917 0110 B948     		ldr	r0, .L109+32
 918 0112 FFF7FEFF 		bl	LCD_PrintString
 919              	.LVL107:
  96:main.c        ****             LCD_Position(1,5);
 920              		.loc 1 96 0
 921 0116 0521     		movs	r1, #5
 922 0118 0120     		movs	r0, #1
 923 011a FFF7FEFF 		bl	LCD_Position
 924              	.LVL108:
  97:main.c        ****             LCD_PrintString("CUATRO");
 925              		.loc 1 97 0
 926 011e B748     		ldr	r0, .L109+36
 927 0120 FFF7FEFF 		bl	LCD_PrintString
 928              	.LVL109:
  98:main.c        ****             break;            
 929              		.loc 1 98 0
 930 0124 72E7     		b	.L73
 931              	.L80:
  99:main.c        ****             
 100:main.c        ****         case 5:
 101:main.c        ****             LCD_Position(0,7);
 932              		.loc 1 101 0
 933 0126 0721     		movs	r1, #7
 934 0128 0020     		movs	r0, #0
 935 012a FFF7FEFF 		bl	LCD_Position
 936              	.LVL110:
 102:main.c        ****             LCD_PrintString("5");
 937              		.loc 1 102 0
 938 012e B448     		ldr	r0, .L109+40
 939 0130 FFF7FEFF 		bl	LCD_PrintString
 940              	.LVL111:
 103:main.c        ****             LCD_Position(1,5);
 941              		.loc 1 103 0
 942 0134 0521     		movs	r1, #5
 943 0136 0120     		movs	r0, #1
 944 0138 FFF7FEFF 		bl	LCD_Position
 945              	.LVL112:
 104:main.c        ****             LCD_PrintString("CINCO");
 946              		.loc 1 104 0
 947 013c B148     		ldr	r0, .L109+44
ARM GAS  C:\Users\acer\AppData\Local\Temp\ccQEWjNP.s 			page 20


 948 013e FFF7FEFF 		bl	LCD_PrintString
 949              	.LVL113:
 105:main.c        ****             break;            
 950              		.loc 1 105 0
 951 0142 63E7     		b	.L73
 952              	.L81:
 106:main.c        ****             
 107:main.c        ****         case 6:
 108:main.c        ****             LCD_Position(0,7);
 953              		.loc 1 108 0
 954 0144 0721     		movs	r1, #7
 955 0146 0020     		movs	r0, #0
 956 0148 FFF7FEFF 		bl	LCD_Position
 957              	.LVL114:
 109:main.c        ****             LCD_PrintString("6");
 958              		.loc 1 109 0
 959 014c AE48     		ldr	r0, .L109+48
 960 014e FFF7FEFF 		bl	LCD_PrintString
 961              	.LVL115:
 110:main.c        ****             LCD_Position(1,5);
 962              		.loc 1 110 0
 963 0152 0521     		movs	r1, #5
 964 0154 0120     		movs	r0, #1
 965 0156 FFF7FEFF 		bl	LCD_Position
 966              	.LVL116:
 111:main.c        ****             LCD_PrintString("SEIS");
 967              		.loc 1 111 0
 968 015a AC48     		ldr	r0, .L109+52
 969 015c FFF7FEFF 		bl	LCD_PrintString
 970              	.LVL117:
 112:main.c        ****             break;            
 971              		.loc 1 112 0
 972 0160 54E7     		b	.L73
 973              	.L82:
 113:main.c        ****             
 114:main.c        ****         case 7:
 115:main.c        ****             LCD_Position(0,7);
 974              		.loc 1 115 0
 975 0162 0721     		movs	r1, #7
 976 0164 0020     		movs	r0, #0
 977 0166 FFF7FEFF 		bl	LCD_Position
 978              	.LVL118:
 116:main.c        ****             LCD_PrintString("7");
 979              		.loc 1 116 0
 980 016a A948     		ldr	r0, .L109+56
 981 016c FFF7FEFF 		bl	LCD_PrintString
 982              	.LVL119:
 117:main.c        ****             LCD_Position(1,5);
 983              		.loc 1 117 0
 984 0170 0521     		movs	r1, #5
 985 0172 0120     		movs	r0, #1
 986 0174 FFF7FEFF 		bl	LCD_Position
 987              	.LVL120:
 118:main.c        ****             LCD_PrintString("SIETE");
 988              		.loc 1 118 0
 989 0178 A648     		ldr	r0, .L109+60
 990 017a FFF7FEFF 		bl	LCD_PrintString
ARM GAS  C:\Users\acer\AppData\Local\Temp\ccQEWjNP.s 			page 21


 991              	.LVL121:
 119:main.c        ****             break;            
 992              		.loc 1 119 0
 993 017e 45E7     		b	.L73
 994              	.L83:
 120:main.c        ****             
 121:main.c        ****         case 8:
 122:main.c        ****             LCD_Position(0,7);
 995              		.loc 1 122 0
 996 0180 0721     		movs	r1, #7
 997 0182 0020     		movs	r0, #0
 998 0184 FFF7FEFF 		bl	LCD_Position
 999              	.LVL122:
 123:main.c        ****             LCD_PrintString("8");
 1000              		.loc 1 123 0
 1001 0188 A348     		ldr	r0, .L109+64
 1002 018a FFF7FEFF 		bl	LCD_PrintString
 1003              	.LVL123:
 124:main.c        ****             LCD_Position(1,6);
 1004              		.loc 1 124 0
 1005 018e 0621     		movs	r1, #6
 1006 0190 0120     		movs	r0, #1
 1007 0192 FFF7FEFF 		bl	LCD_Position
 1008              	.LVL124:
 125:main.c        ****             LCD_PrintString("OCHO");
 1009              		.loc 1 125 0
 1010 0196 A148     		ldr	r0, .L109+68
 1011 0198 FFF7FEFF 		bl	LCD_PrintString
 1012              	.LVL125:
 126:main.c        ****             break;            
 1013              		.loc 1 126 0
 1014 019c 36E7     		b	.L73
 1015              	.L84:
 127:main.c        ****             
 128:main.c        ****         case 9:
 129:main.c        ****             LCD_Position(0,7);
 1016              		.loc 1 129 0
 1017 019e 0721     		movs	r1, #7
 1018 01a0 0020     		movs	r0, #0
 1019 01a2 FFF7FEFF 		bl	LCD_Position
 1020              	.LVL126:
 130:main.c        ****             LCD_PrintString("9");
 1021              		.loc 1 130 0
 1022 01a6 9E48     		ldr	r0, .L109+72
 1023 01a8 FFF7FEFF 		bl	LCD_PrintString
 1024              	.LVL127:
 131:main.c        ****             LCD_Position(1,5);
 1025              		.loc 1 131 0
 1026 01ac 0521     		movs	r1, #5
 1027 01ae 0120     		movs	r0, #1
 1028 01b0 FFF7FEFF 		bl	LCD_Position
 1029              	.LVL128:
 132:main.c        ****             LCD_PrintString("NUEVE");
 1030              		.loc 1 132 0
 1031 01b4 9B48     		ldr	r0, .L109+76
 1032 01b6 FFF7FEFF 		bl	LCD_PrintString
 1033              	.LVL129:
ARM GAS  C:\Users\acer\AppData\Local\Temp\ccQEWjNP.s 			page 22


 133:main.c        ****             break;            
 1034              		.loc 1 133 0
 1035 01ba 27E7     		b	.L73
 1036              	.L85:
 134:main.c        ****             
 135:main.c        ****         case 10:
 136:main.c        ****             LCD_Position(0,7);
 1037              		.loc 1 136 0
 1038 01bc 0721     		movs	r1, #7
 1039 01be 0020     		movs	r0, #0
 1040 01c0 FFF7FEFF 		bl	LCD_Position
 1041              	.LVL130:
 137:main.c        ****             LCD_PrintString("10");
 1042              		.loc 1 137 0
 1043 01c4 9848     		ldr	r0, .L109+80
 1044 01c6 FFF7FEFF 		bl	LCD_PrintString
 1045              	.LVL131:
 138:main.c        ****             LCD_Position(1,6);
 1046              		.loc 1 138 0
 1047 01ca 0621     		movs	r1, #6
 1048 01cc 0120     		movs	r0, #1
 1049 01ce FFF7FEFF 		bl	LCD_Position
 1050              	.LVL132:
 139:main.c        ****             LCD_PrintString("DIEZ");
 1051              		.loc 1 139 0
 1052 01d2 9648     		ldr	r0, .L109+84
 1053 01d4 FFF7FEFF 		bl	LCD_PrintString
 1054              	.LVL133:
 140:main.c        ****             break;            
 1055              		.loc 1 140 0
 1056 01d8 18E7     		b	.L73
 1057              	.L86:
 141:main.c        ****             
 142:main.c        ****         case 11:
 143:main.c        ****             LCD_Position(0,7);
 1058              		.loc 1 143 0
 1059 01da 0721     		movs	r1, #7
 1060 01dc 0020     		movs	r0, #0
 1061 01de FFF7FEFF 		bl	LCD_Position
 1062              	.LVL134:
 144:main.c        ****             LCD_PrintString("11");
 1063              		.loc 1 144 0
 1064 01e2 9348     		ldr	r0, .L109+88
 1065 01e4 FFF7FEFF 		bl	LCD_PrintString
 1066              	.LVL135:
 145:main.c        ****             LCD_Position(1,6);
 1067              		.loc 1 145 0
 1068 01e8 0621     		movs	r1, #6
 1069 01ea 0120     		movs	r0, #1
 1070 01ec FFF7FEFF 		bl	LCD_Position
 1071              	.LVL136:
 146:main.c        ****             LCD_PrintString("ONCE");
 1072              		.loc 1 146 0
 1073 01f0 9048     		ldr	r0, .L109+92
 1074 01f2 FFF7FEFF 		bl	LCD_PrintString
 1075              	.LVL137:
 147:main.c        ****             break;    
ARM GAS  C:\Users\acer\AppData\Local\Temp\ccQEWjNP.s 			page 23


 1076              		.loc 1 147 0
 1077 01f6 09E7     		b	.L73
 1078              	.L87:
 148:main.c        ****             
 149:main.c        ****         case 12:
 150:main.c        ****             LCD_Position(0,7);
 1079              		.loc 1 150 0
 1080 01f8 0721     		movs	r1, #7
 1081 01fa 0020     		movs	r0, #0
 1082 01fc FFF7FEFF 		bl	LCD_Position
 1083              	.LVL138:
 151:main.c        ****             LCD_PrintString("12");
 1084              		.loc 1 151 0
 1085 0200 8D48     		ldr	r0, .L109+96
 1086 0202 FFF7FEFF 		bl	LCD_PrintString
 1087              	.LVL139:
 152:main.c        ****             LCD_Position(1,6);
 1088              		.loc 1 152 0
 1089 0206 0621     		movs	r1, #6
 1090 0208 0120     		movs	r0, #1
 1091 020a FFF7FEFF 		bl	LCD_Position
 1092              	.LVL140:
 153:main.c        ****              LCD_PrintString("DOCE");
 1093              		.loc 1 153 0
 1094 020e 8B48     		ldr	r0, .L109+100
 1095 0210 FFF7FEFF 		bl	LCD_PrintString
 1096              	.LVL141:
 154:main.c        ****             break;            
 1097              		.loc 1 154 0
 1098 0214 FAE6     		b	.L73
 1099              	.L88:
 155:main.c        ****             
 156:main.c        ****         case 13:
 157:main.c        ****             LCD_Position(0,7);
 1100              		.loc 1 157 0
 1101 0216 0721     		movs	r1, #7
 1102 0218 0020     		movs	r0, #0
 1103 021a FFF7FEFF 		bl	LCD_Position
 1104              	.LVL142:
 158:main.c        ****             LCD_PrintString("13");
 1105              		.loc 1 158 0
 1106 021e 8848     		ldr	r0, .L109+104
 1107 0220 FFF7FEFF 		bl	LCD_PrintString
 1108              	.LVL143:
 159:main.c        ****             LCD_Position(1,5);
 1109              		.loc 1 159 0
 1110 0224 0521     		movs	r1, #5
 1111 0226 0120     		movs	r0, #1
 1112 0228 FFF7FEFF 		bl	LCD_Position
 1113              	.LVL144:
 160:main.c        ****             LCD_PrintString("TRECE");
 1114              		.loc 1 160 0
 1115 022c 8548     		ldr	r0, .L109+108
 1116 022e FFF7FEFF 		bl	LCD_PrintString
 1117              	.LVL145:
 161:main.c        ****             break;            
 1118              		.loc 1 161 0
ARM GAS  C:\Users\acer\AppData\Local\Temp\ccQEWjNP.s 			page 24


 1119 0232 EBE6     		b	.L73
 1120              	.L89:
 162:main.c        ****             
 163:main.c        ****         case 14:
 164:main.c        ****             LCD_Position(0,7);
 1121              		.loc 1 164 0
 1122 0234 0721     		movs	r1, #7
 1123 0236 0020     		movs	r0, #0
 1124 0238 FFF7FEFF 		bl	LCD_Position
 1125              	.LVL146:
 165:main.c        ****             LCD_PrintString("14");
 1126              		.loc 1 165 0
 1127 023c 8248     		ldr	r0, .L109+112
 1128 023e FFF7FEFF 		bl	LCD_PrintString
 1129              	.LVL147:
 166:main.c        ****             LCD_Position(1,5);
 1130              		.loc 1 166 0
 1131 0242 0521     		movs	r1, #5
 1132 0244 0120     		movs	r0, #1
 1133 0246 FFF7FEFF 		bl	LCD_Position
 1134              	.LVL148:
 167:main.c        ****             LCD_PrintString("CATORCE");
 1135              		.loc 1 167 0
 1136 024a 8048     		ldr	r0, .L109+116
 1137 024c FFF7FEFF 		bl	LCD_PrintString
 1138              	.LVL149:
 168:main.c        ****             break;            
 1139              		.loc 1 168 0
 1140 0250 DCE6     		b	.L73
 1141              	.L90:
 169:main.c        ****             
 170:main.c        ****         case 15:
 171:main.c        ****             LCD_Position(0,7);
 1142              		.loc 1 171 0
 1143 0252 0721     		movs	r1, #7
 1144 0254 0020     		movs	r0, #0
 1145 0256 FFF7FEFF 		bl	LCD_Position
 1146              	.LVL150:
 172:main.c        ****             LCD_PrintString("15");
 1147              		.loc 1 172 0
 1148 025a 7D48     		ldr	r0, .L109+120
 1149 025c FFF7FEFF 		bl	LCD_PrintString
 1150              	.LVL151:
 173:main.c        ****             LCD_Position(1,5);
 1151              		.loc 1 173 0
 1152 0260 0521     		movs	r1, #5
 1153 0262 0120     		movs	r0, #1
 1154 0264 FFF7FEFF 		bl	LCD_Position
 1155              	.LVL152:
 174:main.c        ****             LCD_PrintString("QUINCE");
 1156              		.loc 1 174 0
 1157 0268 7A48     		ldr	r0, .L109+124
 1158 026a FFF7FEFF 		bl	LCD_PrintString
 1159              	.LVL153:
 175:main.c        ****             break;            
 1160              		.loc 1 175 0
 1161 026e CDE6     		b	.L73
ARM GAS  C:\Users\acer\AppData\Local\Temp\ccQEWjNP.s 			page 25


 1162              	.L91:
 176:main.c        ****             
 177:main.c        ****         case 16:
 178:main.c        ****             LCD_Position(0,7);
 1163              		.loc 1 178 0
 1164 0270 0721     		movs	r1, #7
 1165 0272 0020     		movs	r0, #0
 1166 0274 FFF7FEFF 		bl	LCD_Position
 1167              	.LVL154:
 179:main.c        ****             LCD_PrintString("16");
 1168              		.loc 1 179 0
 1169 0278 7748     		ldr	r0, .L109+128
 1170 027a FFF7FEFF 		bl	LCD_PrintString
 1171              	.LVL155:
 180:main.c        ****             LCD_Position(1,3);
 1172              		.loc 1 180 0
 1173 027e 0321     		movs	r1, #3
 1174 0280 0120     		movs	r0, #1
 1175 0282 FFF7FEFF 		bl	LCD_Position
 1176              	.LVL156:
 181:main.c        ****             LCD_PrintString("DIECISEIS");
 1177              		.loc 1 181 0
 1178 0286 7548     		ldr	r0, .L109+132
 1179 0288 FFF7FEFF 		bl	LCD_PrintString
 1180              	.LVL157:
 182:main.c        ****             break;            
 1181              		.loc 1 182 0
 1182 028c BEE6     		b	.L73
 1183              	.L92:
 183:main.c        ****             
 184:main.c        ****         case 17:
 185:main.c        ****             LCD_Position(0,7);
 1184              		.loc 1 185 0
 1185 028e 0721     		movs	r1, #7
 1186 0290 0020     		movs	r0, #0
 1187 0292 FFF7FEFF 		bl	LCD_Position
 1188              	.LVL158:
 186:main.c        ****             LCD_PrintString("17");
 1189              		.loc 1 186 0
 1190 0296 7248     		ldr	r0, .L109+136
 1191 0298 FFF7FEFF 		bl	LCD_PrintString
 1192              	.LVL159:
 187:main.c        ****             LCD_Position(1,3);
 1193              		.loc 1 187 0
 1194 029c 0321     		movs	r1, #3
 1195 029e 0120     		movs	r0, #1
 1196 02a0 FFF7FEFF 		bl	LCD_Position
 1197              	.LVL160:
 188:main.c        ****             LCD_PrintString("DIECISIETE");
 1198              		.loc 1 188 0
 1199 02a4 6F48     		ldr	r0, .L109+140
 1200 02a6 FFF7FEFF 		bl	LCD_PrintString
 1201              	.LVL161:
 189:main.c        ****             break;            
 1202              		.loc 1 189 0
 1203 02aa AFE6     		b	.L73
 1204              	.L93:
ARM GAS  C:\Users\acer\AppData\Local\Temp\ccQEWjNP.s 			page 26


 190:main.c        ****             
 191:main.c        ****         case 18:
 192:main.c        ****             LCD_Position(0,7);
 1205              		.loc 1 192 0
 1206 02ac 0721     		movs	r1, #7
 1207 02ae 0020     		movs	r0, #0
 1208 02b0 FFF7FEFF 		bl	LCD_Position
 1209              	.LVL162:
 193:main.c        ****             LCD_PrintString("18");
 1210              		.loc 1 193 0
 1211 02b4 6C48     		ldr	r0, .L109+144
 1212 02b6 FFF7FEFF 		bl	LCD_PrintString
 1213              	.LVL163:
 194:main.c        ****             LCD_Position(1,3);
 1214              		.loc 1 194 0
 1215 02ba 0321     		movs	r1, #3
 1216 02bc 0120     		movs	r0, #1
 1217 02be FFF7FEFF 		bl	LCD_Position
 1218              	.LVL164:
 195:main.c        ****             LCD_PrintString("DIECIOCHO");
 1219              		.loc 1 195 0
 1220 02c2 6A48     		ldr	r0, .L109+148
 1221 02c4 FFF7FEFF 		bl	LCD_PrintString
 1222              	.LVL165:
 196:main.c        ****             break;            
 1223              		.loc 1 196 0
 1224 02c8 A0E6     		b	.L73
 1225              	.L94:
 197:main.c        ****             
 198:main.c        ****         case 19:
 199:main.c        ****             LCD_Position(0,7);
 1226              		.loc 1 199 0
 1227 02ca 0721     		movs	r1, #7
 1228 02cc 0020     		movs	r0, #0
 1229 02ce FFF7FEFF 		bl	LCD_Position
 1230              	.LVL166:
 200:main.c        ****             LCD_PrintString("19");
 1231              		.loc 1 200 0
 1232 02d2 6748     		ldr	r0, .L109+152
 1233 02d4 FFF7FEFF 		bl	LCD_PrintString
 1234              	.LVL167:
 201:main.c        ****             LCD_Position(1,3);
 1235              		.loc 1 201 0
 1236 02d8 0321     		movs	r1, #3
 1237 02da 0120     		movs	r0, #1
 1238 02dc FFF7FEFF 		bl	LCD_Position
 1239              	.LVL168:
 202:main.c        ****             LCD_PrintString("DIECINUEVE");
 1240              		.loc 1 202 0
 1241 02e0 6448     		ldr	r0, .L109+156
 1242 02e2 FFF7FEFF 		bl	LCD_PrintString
 1243              	.LVL169:
 203:main.c        ****             break;            
 1244              		.loc 1 203 0
 1245 02e6 91E6     		b	.L73
 1246              	.L95:
 204:main.c        ****             
ARM GAS  C:\Users\acer\AppData\Local\Temp\ccQEWjNP.s 			page 27


 205:main.c        ****         case 20:
 206:main.c        ****             LCD_Position(0,7);
 1247              		.loc 1 206 0
 1248 02e8 0721     		movs	r1, #7
 1249 02ea 0020     		movs	r0, #0
 1250 02ec FFF7FEFF 		bl	LCD_Position
 1251              	.LVL170:
 207:main.c        ****             LCD_PrintString("20");
 1252              		.loc 1 207 0
 1253 02f0 6148     		ldr	r0, .L109+160
 1254 02f2 FFF7FEFF 		bl	LCD_PrintString
 1255              	.LVL171:
 208:main.c        ****             LCD_Position(1,5);
 1256              		.loc 1 208 0
 1257 02f6 0521     		movs	r1, #5
 1258 02f8 0120     		movs	r0, #1
 1259 02fa FFF7FEFF 		bl	LCD_Position
 1260              	.LVL172:
 209:main.c        ****             LCD_PrintString("VEINTE");
 1261              		.loc 1 209 0
 1262 02fe 5F48     		ldr	r0, .L109+164
 1263 0300 FFF7FEFF 		bl	LCD_PrintString
 1264              	.LVL173:
 210:main.c        ****             break;            
 1265              		.loc 1 210 0
 1266 0304 82E6     		b	.L73
 1267              	.L96:
 211:main.c        ****             
 212:main.c        ****         case 21:
 213:main.c        ****             LCD_Position(0,7);
 1268              		.loc 1 213 0
 1269 0306 0721     		movs	r1, #7
 1270 0308 0020     		movs	r0, #0
 1271 030a FFF7FEFF 		bl	LCD_Position
 1272              	.LVL174:
 214:main.c        ****             LCD_PrintString("21");
 1273              		.loc 1 214 0
 1274 030e 5C48     		ldr	r0, .L109+168
 1275 0310 FFF7FEFF 		bl	LCD_PrintString
 1276              	.LVL175:
 215:main.c        ****             LCD_Position(1,3);
 1277              		.loc 1 215 0
 1278 0314 0321     		movs	r1, #3
 1279 0316 0120     		movs	r0, #1
 1280 0318 FFF7FEFF 		bl	LCD_Position
 1281              	.LVL176:
 216:main.c        ****             LCD_PrintString("VEINTIUNO");
 1282              		.loc 1 216 0
 1283 031c 5948     		ldr	r0, .L109+172
 1284 031e FFF7FEFF 		bl	LCD_PrintString
 1285              	.LVL177:
 217:main.c        ****             break;            
 1286              		.loc 1 217 0
 1287 0322 73E6     		b	.L73
 1288              	.L97:
 218:main.c        ****             
 219:main.c        ****         case 22:
ARM GAS  C:\Users\acer\AppData\Local\Temp\ccQEWjNP.s 			page 28


 220:main.c        ****             LCD_Position(0,7);
 1289              		.loc 1 220 0
 1290 0324 0721     		movs	r1, #7
 1291 0326 0020     		movs	r0, #0
 1292 0328 FFF7FEFF 		bl	LCD_Position
 1293              	.LVL178:
 221:main.c        ****             LCD_PrintString("22");
 1294              		.loc 1 221 0
 1295 032c 5648     		ldr	r0, .L109+176
 1296 032e FFF7FEFF 		bl	LCD_PrintString
 1297              	.LVL179:
 222:main.c        ****             LCD_Position(1,3);
 1298              		.loc 1 222 0
 1299 0332 0321     		movs	r1, #3
 1300 0334 0120     		movs	r0, #1
 1301 0336 FFF7FEFF 		bl	LCD_Position
 1302              	.LVL180:
 223:main.c        ****             LCD_PrintString("VEINTIDOS");
 1303              		.loc 1 223 0
 1304 033a 5448     		ldr	r0, .L109+180
 1305 033c FFF7FEFF 		bl	LCD_PrintString
 1306              	.LVL181:
 224:main.c        ****             break;            
 1307              		.loc 1 224 0
 1308 0340 64E6     		b	.L73
 1309              	.L98:
 225:main.c        ****             
 226:main.c        ****         case 23:
 227:main.c        ****             LCD_Position(0,7);
 1310              		.loc 1 227 0
 1311 0342 0721     		movs	r1, #7
 1312 0344 0020     		movs	r0, #0
 1313 0346 FFF7FEFF 		bl	LCD_Position
 1314              	.LVL182:
 228:main.c        ****             LCD_PrintString("23");
 1315              		.loc 1 228 0
 1316 034a 5148     		ldr	r0, .L109+184
 1317 034c FFF7FEFF 		bl	LCD_PrintString
 1318              	.LVL183:
 229:main.c        ****             LCD_Position(1,3);
 1319              		.loc 1 229 0
 1320 0350 0321     		movs	r1, #3
 1321 0352 0120     		movs	r0, #1
 1322 0354 FFF7FEFF 		bl	LCD_Position
 1323              	.LVL184:
 230:main.c        ****             LCD_PrintString("VEINTITRES");
 1324              		.loc 1 230 0
 1325 0358 4E48     		ldr	r0, .L109+188
 1326 035a FFF7FEFF 		bl	LCD_PrintString
 1327              	.LVL185:
 231:main.c        ****             break;            
 1328              		.loc 1 231 0
 1329 035e 55E6     		b	.L73
 1330              	.L99:
 232:main.c        ****             
 233:main.c        ****         case 24:
 234:main.c        ****             LCD_Position(0,7);
ARM GAS  C:\Users\acer\AppData\Local\Temp\ccQEWjNP.s 			page 29


 1331              		.loc 1 234 0
 1332 0360 0721     		movs	r1, #7
 1333 0362 0020     		movs	r0, #0
 1334 0364 FFF7FEFF 		bl	LCD_Position
 1335              	.LVL186:
 235:main.c        ****             LCD_PrintString("24");
 1336              		.loc 1 235 0
 1337 0368 4B48     		ldr	r0, .L109+192
 1338 036a FFF7FEFF 		bl	LCD_PrintString
 1339              	.LVL187:
 236:main.c        ****             LCD_Position(1,2);
 1340              		.loc 1 236 0
 1341 036e 0221     		movs	r1, #2
 1342 0370 0120     		movs	r0, #1
 1343 0372 FFF7FEFF 		bl	LCD_Position
 1344              	.LVL188:
 237:main.c        ****             LCD_PrintString("VEINTICUATRO");
 1345              		.loc 1 237 0
 1346 0376 4948     		ldr	r0, .L109+196
 1347 0378 FFF7FEFF 		bl	LCD_PrintString
 1348              	.LVL189:
 238:main.c        ****             break;            
 1349              		.loc 1 238 0
 1350 037c 46E6     		b	.L73
 1351              	.L100:
 239:main.c        ****             
 240:main.c        ****         case 25:
 241:main.c        ****             LCD_Position(0,7);
 1352              		.loc 1 241 0
 1353 037e 0721     		movs	r1, #7
 1354 0380 0020     		movs	r0, #0
 1355 0382 FFF7FEFF 		bl	LCD_Position
 1356              	.LVL190:
 242:main.c        ****             LCD_PrintString("25");
 1357              		.loc 1 242 0
 1358 0386 4648     		ldr	r0, .L109+200
 1359 0388 FFF7FEFF 		bl	LCD_PrintString
 1360              	.LVL191:
 243:main.c        ****             LCD_Position(1,3);
 1361              		.loc 1 243 0
 1362 038c 0321     		movs	r1, #3
 1363 038e 0120     		movs	r0, #1
 1364 0390 FFF7FEFF 		bl	LCD_Position
 1365              	.LVL192:
 244:main.c        ****             LCD_PrintString("VEINTICINCO");
 1366              		.loc 1 244 0
 1367 0394 4348     		ldr	r0, .L109+204
 1368 0396 FFF7FEFF 		bl	LCD_PrintString
 1369              	.LVL193:
 245:main.c        ****             break;            
 1370              		.loc 1 245 0
 1371 039a 37E6     		b	.L73
 1372              	.L101:
 246:main.c        ****             
 247:main.c        ****         case 26:
 248:main.c        ****             LCD_Position(0,7);
 1373              		.loc 1 248 0
ARM GAS  C:\Users\acer\AppData\Local\Temp\ccQEWjNP.s 			page 30


 1374 039c 0721     		movs	r1, #7
 1375 039e 0020     		movs	r0, #0
 1376 03a0 FFF7FEFF 		bl	LCD_Position
 1377              	.LVL194:
 249:main.c        ****             LCD_PrintString("26");
 1378              		.loc 1 249 0
 1379 03a4 4048     		ldr	r0, .L109+208
 1380 03a6 FFF7FEFF 		bl	LCD_PrintString
 1381              	.LVL195:
 250:main.c        ****             LCD_Position(1,3);
 1382              		.loc 1 250 0
 1383 03aa 0321     		movs	r1, #3
 1384 03ac 0120     		movs	r0, #1
 1385 03ae FFF7FEFF 		bl	LCD_Position
 1386              	.LVL196:
 251:main.c        ****             LCD_PrintString("VEINTISEIS");
 1387              		.loc 1 251 0
 1388 03b2 3E48     		ldr	r0, .L109+212
 1389 03b4 FFF7FEFF 		bl	LCD_PrintString
 1390              	.LVL197:
 252:main.c        ****             break;            
 1391              		.loc 1 252 0
 1392 03b8 28E6     		b	.L73
 1393              	.L102:
 253:main.c        ****             
 254:main.c        ****         case 27:
 255:main.c        ****             LCD_Position(0,7);
 1394              		.loc 1 255 0
 1395 03ba 0721     		movs	r1, #7
 1396 03bc 0020     		movs	r0, #0
 1397 03be FFF7FEFF 		bl	LCD_Position
 1398              	.LVL198:
 256:main.c        ****             LCD_PrintString("27");
 1399              		.loc 1 256 0
 1400 03c2 3B48     		ldr	r0, .L109+216
 1401 03c4 FFF7FEFF 		bl	LCD_PrintString
 1402              	.LVL199:
 257:main.c        ****             LCD_Position(1,2);
 1403              		.loc 1 257 0
 1404 03c8 0221     		movs	r1, #2
 1405 03ca 0120     		movs	r0, #1
 1406 03cc FFF7FEFF 		bl	LCD_Position
 1407              	.LVL200:
 258:main.c        ****             LCD_PrintString("VEINTISIETE");
 1408              		.loc 1 258 0
 1409 03d0 3848     		ldr	r0, .L109+220
 1410 03d2 FFF7FEFF 		bl	LCD_PrintString
 1411              	.LVL201:
 259:main.c        ****             break;            
 1412              		.loc 1 259 0
 1413 03d6 19E6     		b	.L73
 1414              	.L110:
 1415              		.align	2
 1416              	.L109:
 1417 03d8 00000000 		.word	.LC0
 1418 03dc 10000000 		.word	.LC1
 1419 03e0 18000000 		.word	.LC2
ARM GAS  C:\Users\acer\AppData\Local\Temp\ccQEWjNP.s 			page 31


 1420 03e4 1C000000 		.word	.LC3
 1421 03e8 20000000 		.word	.LC4
 1422 03ec 24000000 		.word	.LC5
 1423 03f0 28000000 		.word	.LC6
 1424 03f4 2C000000 		.word	.LC7
 1425 03f8 34000000 		.word	.LC8
 1426 03fc 38000000 		.word	.LC9
 1427 0400 40000000 		.word	.LC10
 1428 0404 44000000 		.word	.LC11
 1429 0408 4C000000 		.word	.LC12
 1430 040c 50000000 		.word	.LC13
 1431 0410 58000000 		.word	.LC14
 1432 0414 5C000000 		.word	.LC15
 1433 0418 64000000 		.word	.LC16
 1434 041c 68000000 		.word	.LC17
 1435 0420 70000000 		.word	.LC18
 1436 0424 74000000 		.word	.LC19
 1437 0428 7C000000 		.word	.LC20
 1438 042c 80000000 		.word	.LC21
 1439 0430 88000000 		.word	.LC22
 1440 0434 8C000000 		.word	.LC23
 1441 0438 94000000 		.word	.LC24
 1442 043c 98000000 		.word	.LC25
 1443 0440 A0000000 		.word	.LC26
 1444 0444 A4000000 		.word	.LC27
 1445 0448 AC000000 		.word	.LC28
 1446 044c B0000000 		.word	.LC29
 1447 0450 B8000000 		.word	.LC30
 1448 0454 BC000000 		.word	.LC31
 1449 0458 C4000000 		.word	.LC32
 1450 045c C8000000 		.word	.LC33
 1451 0460 D4000000 		.word	.LC34
 1452 0464 D8000000 		.word	.LC35
 1453 0468 E4000000 		.word	.LC36
 1454 046c E8000000 		.word	.LC37
 1455 0470 F4000000 		.word	.LC38
 1456 0474 F8000000 		.word	.LC39
 1457 0478 04010000 		.word	.LC40
 1458 047c 08010000 		.word	.LC41
 1459 0480 10010000 		.word	.LC42
 1460 0484 14010000 		.word	.LC43
 1461 0488 20010000 		.word	.LC44
 1462 048c 24010000 		.word	.LC45
 1463 0490 30010000 		.word	.LC46
 1464 0494 34010000 		.word	.LC47
 1465 0498 40010000 		.word	.LC48
 1466 049c 44010000 		.word	.LC49
 1467 04a0 54010000 		.word	.LC50
 1468 04a4 58010000 		.word	.LC51
 1469 04a8 64010000 		.word	.LC52
 1470 04ac 68010000 		.word	.LC53
 1471 04b0 74010000 		.word	.LC54
 1472 04b4 78010000 		.word	.LC55
 1473              	.L103:
 260:main.c        ****             
 261:main.c        ****         case 28:
 262:main.c        ****             LCD_Position(0,7);
ARM GAS  C:\Users\acer\AppData\Local\Temp\ccQEWjNP.s 			page 32


 1474              		.loc 1 262 0
 1475 04b8 0721     		movs	r1, #7
 1476 04ba 0020     		movs	r0, #0
 1477 04bc FFF7FEFF 		bl	LCD_Position
 1478              	.LVL202:
 263:main.c        ****             LCD_PrintString("28");
 1479              		.loc 1 263 0
 1480 04c0 1B48     		ldr	r0, .L111
 1481 04c2 FFF7FEFF 		bl	LCD_PrintString
 1482              	.LVL203:
 264:main.c        ****             LCD_Position(1,3);
 1483              		.loc 1 264 0
 1484 04c6 0321     		movs	r1, #3
 1485 04c8 0120     		movs	r0, #1
 1486 04ca FFF7FEFF 		bl	LCD_Position
 1487              	.LVL204:
 265:main.c        ****             LCD_PrintString("VEINTIOCHO");
 1488              		.loc 1 265 0
 1489 04ce 1948     		ldr	r0, .L111+4
 1490 04d0 FFF7FEFF 		bl	LCD_PrintString
 1491              	.LVL205:
 266:main.c        ****             break;            
 1492              		.loc 1 266 0
 1493 04d4 9AE5     		b	.L73
 1494              	.L104:
 267:main.c        ****             
 268:main.c        ****         case 29:
 269:main.c        ****             LCD_Position(0,7);
 1495              		.loc 1 269 0
 1496 04d6 0721     		movs	r1, #7
 1497 04d8 0020     		movs	r0, #0
 1498 04da FFF7FEFF 		bl	LCD_Position
 1499              	.LVL206:
 270:main.c        ****             LCD_PrintString("29");
 1500              		.loc 1 270 0
 1501 04de 1648     		ldr	r0, .L111+8
 1502 04e0 FFF7FEFF 		bl	LCD_PrintString
 1503              	.LVL207:
 271:main.c        ****             LCD_Position(1,2);
 1504              		.loc 1 271 0
 1505 04e4 0221     		movs	r1, #2
 1506 04e6 0120     		movs	r0, #1
 1507 04e8 FFF7FEFF 		bl	LCD_Position
 1508              	.LVL208:
 272:main.c        ****             LCD_PrintString("VEINTINUEVE");
 1509              		.loc 1 272 0
 1510 04ec 1348     		ldr	r0, .L111+12
 1511 04ee FFF7FEFF 		bl	LCD_PrintString
 1512              	.LVL209:
 273:main.c        ****             break;
 1513              		.loc 1 273 0
 1514 04f2 8BE5     		b	.L73
 1515              	.L105:
 274:main.c        ****             
 275:main.c        ****         case 30:
 276:main.c        ****             LCD_Position(0,7);
 1516              		.loc 1 276 0
ARM GAS  C:\Users\acer\AppData\Local\Temp\ccQEWjNP.s 			page 33


 1517 04f4 0721     		movs	r1, #7
 1518 04f6 0020     		movs	r0, #0
 1519 04f8 FFF7FEFF 		bl	LCD_Position
 1520              	.LVL210:
 277:main.c        ****             LCD_PrintString("30");
 1521              		.loc 1 277 0
 1522 04fc 1048     		ldr	r0, .L111+16
 1523 04fe FFF7FEFF 		bl	LCD_PrintString
 1524              	.LVL211:
 278:main.c        ****             LCD_Position(1,5);
 1525              		.loc 1 278 0
 1526 0502 0521     		movs	r1, #5
 1527 0504 0120     		movs	r0, #1
 1528 0506 FFF7FEFF 		bl	LCD_Position
 1529              	.LVL212:
 279:main.c        ****             LCD_PrintString("TREINTA");
 1530              		.loc 1 279 0
 1531 050a 0E48     		ldr	r0, .L111+20
 1532 050c FFF7FEFF 		bl	LCD_PrintString
 1533              	.LVL213:
 280:main.c        ****             break;          
 1534              		.loc 1 280 0
 1535 0510 7CE5     		b	.L73
 1536              	.L106:
 281:main.c        ****             
 282:main.c        ****          case 31:
 283:main.c        ****             LCD_Position(0,7);
 1537              		.loc 1 283 0
 1538 0512 0721     		movs	r1, #7
 1539 0514 0020     		movs	r0, #0
 1540 0516 FFF7FEFF 		bl	LCD_Position
 1541              	.LVL214:
 284:main.c        ****             LCD_PrintString("31");
 1542              		.loc 1 284 0
 1543 051a 0B48     		ldr	r0, .L111+24
 1544 051c FFF7FEFF 		bl	LCD_PrintString
 1545              	.LVL215:
 285:main.c        ****             LCD_Position(1,2);
 1546              		.loc 1 285 0
 1547 0520 0221     		movs	r1, #2
 1548 0522 0120     		movs	r0, #1
 1549 0524 FFF7FEFF 		bl	LCD_Position
 1550              	.LVL216:
 286:main.c        ****             LCD_PrintString("TREINTAIUNO");
 1551              		.loc 1 286 0
 1552 0528 0848     		ldr	r0, .L111+28
 1553 052a FFF7FEFF 		bl	LCD_PrintString
 1554              	.LVL217:
 287:main.c        **** 
 288:main.c        ****             
 289:main.c        ****             break;  
 1555              		.loc 1 289 0
 1556 052e 6DE5     		b	.L73
 1557              	.L112:
 1558              		.align	2
 1559              	.L111:
 1560 0530 84010000 		.word	.LC56
ARM GAS  C:\Users\acer\AppData\Local\Temp\ccQEWjNP.s 			page 34


 1561 0534 88010000 		.word	.LC57
 1562 0538 94010000 		.word	.LC58
 1563 053c 98010000 		.word	.LC59
 1564 0540 A4010000 		.word	.LC60
 1565 0544 A8010000 		.word	.LC61
 1566 0548 B0010000 		.word	.LC62
 1567 054c B4010000 		.word	.LC63
 1568              		.cfi_endproc
 1569              	.LFE64:
 1570              		.size	main, .-main
 1571              		.section	.rodata.str1.4,"aMS",%progbits,1
 1572              		.align	2
 1573              	.LC0:
 1574 0000 46454C49 		.ascii	"FELIPE ALVARADO\000"
 1574      50452041 
 1574      4C564152 
 1574      41444F00 
 1575              	.LC1:
 1576 0010 47414C49 		.ascii	"GALICIA\000"
 1576      43494100 
 1577              	.LC2:
 1578 0018 3100     		.ascii	"1\000"
 1579 001a 0000     		.space	2
 1580              	.LC3:
 1581 001c 554E4F00 		.ascii	"UNO\000"
 1582              	.LC4:
 1583 0020 3200     		.ascii	"2\000"
 1584 0022 0000     		.space	2
 1585              	.LC5:
 1586 0024 444F5300 		.ascii	"DOS\000"
 1587              	.LC6:
 1588 0028 3300     		.ascii	"3\000"
 1589 002a 0000     		.space	2
 1590              	.LC7:
 1591 002c 54524553 		.ascii	"TRES\000"
 1591      00
 1592 0031 000000   		.space	3
 1593              	.LC8:
 1594 0034 3400     		.ascii	"4\000"
 1595 0036 0000     		.space	2
 1596              	.LC9:
 1597 0038 43554154 		.ascii	"CUATRO\000"
 1597      524F00
 1598 003f 00       		.space	1
 1599              	.LC10:
 1600 0040 3500     		.ascii	"5\000"
 1601 0042 0000     		.space	2
 1602              	.LC11:
 1603 0044 43494E43 		.ascii	"CINCO\000"
 1603      4F00
 1604 004a 0000     		.space	2
 1605              	.LC12:
 1606 004c 3600     		.ascii	"6\000"
 1607 004e 0000     		.space	2
 1608              	.LC13:
 1609 0050 53454953 		.ascii	"SEIS\000"
 1609      00
ARM GAS  C:\Users\acer\AppData\Local\Temp\ccQEWjNP.s 			page 35


 1610 0055 000000   		.space	3
 1611              	.LC14:
 1612 0058 3700     		.ascii	"7\000"
 1613 005a 0000     		.space	2
 1614              	.LC15:
 1615 005c 53494554 		.ascii	"SIETE\000"
 1615      4500
 1616 0062 0000     		.space	2
 1617              	.LC16:
 1618 0064 3800     		.ascii	"8\000"
 1619 0066 0000     		.space	2
 1620              	.LC17:
 1621 0068 4F43484F 		.ascii	"OCHO\000"
 1621      00
 1622 006d 000000   		.space	3
 1623              	.LC18:
 1624 0070 3900     		.ascii	"9\000"
 1625 0072 0000     		.space	2
 1626              	.LC19:
 1627 0074 4E554556 		.ascii	"NUEVE\000"
 1627      4500
 1628 007a 0000     		.space	2
 1629              	.LC20:
 1630 007c 313000   		.ascii	"10\000"
 1631 007f 00       		.space	1
 1632              	.LC21:
 1633 0080 4449455A 		.ascii	"DIEZ\000"
 1633      00
 1634 0085 000000   		.space	3
 1635              	.LC22:
 1636 0088 313100   		.ascii	"11\000"
 1637 008b 00       		.space	1
 1638              	.LC23:
 1639 008c 4F4E4345 		.ascii	"ONCE\000"
 1639      00
 1640 0091 000000   		.space	3
 1641              	.LC24:
 1642 0094 313200   		.ascii	"12\000"
 1643 0097 00       		.space	1
 1644              	.LC25:
 1645 0098 444F4345 		.ascii	"DOCE\000"
 1645      00
 1646 009d 000000   		.space	3
 1647              	.LC26:
 1648 00a0 313300   		.ascii	"13\000"
 1649 00a3 00       		.space	1
 1650              	.LC27:
 1651 00a4 54524543 		.ascii	"TRECE\000"
 1651      4500
 1652 00aa 0000     		.space	2
 1653              	.LC28:
 1654 00ac 313400   		.ascii	"14\000"
 1655 00af 00       		.space	1
 1656              	.LC29:
 1657 00b0 4341544F 		.ascii	"CATORCE\000"
 1657      52434500 
 1658              	.LC30:
ARM GAS  C:\Users\acer\AppData\Local\Temp\ccQEWjNP.s 			page 36


 1659 00b8 313500   		.ascii	"15\000"
 1660 00bb 00       		.space	1
 1661              	.LC31:
 1662 00bc 5155494E 		.ascii	"QUINCE\000"
 1662      434500
 1663 00c3 00       		.space	1
 1664              	.LC32:
 1665 00c4 313600   		.ascii	"16\000"
 1666 00c7 00       		.space	1
 1667              	.LC33:
 1668 00c8 44494543 		.ascii	"DIECISEIS\000"
 1668      49534549 
 1668      5300
 1669 00d2 0000     		.space	2
 1670              	.LC34:
 1671 00d4 313700   		.ascii	"17\000"
 1672 00d7 00       		.space	1
 1673              	.LC35:
 1674 00d8 44494543 		.ascii	"DIECISIETE\000"
 1674      49534945 
 1674      544500
 1675 00e3 00       		.space	1
 1676              	.LC36:
 1677 00e4 313800   		.ascii	"18\000"
 1678 00e7 00       		.space	1
 1679              	.LC37:
 1680 00e8 44494543 		.ascii	"DIECIOCHO\000"
 1680      494F4348 
 1680      4F00
 1681 00f2 0000     		.space	2
 1682              	.LC38:
 1683 00f4 313900   		.ascii	"19\000"
 1684 00f7 00       		.space	1
 1685              	.LC39:
 1686 00f8 44494543 		.ascii	"DIECINUEVE\000"
 1686      494E5545 
 1686      564500
 1687 0103 00       		.space	1
 1688              	.LC40:
 1689 0104 323000   		.ascii	"20\000"
 1690 0107 00       		.space	1
 1691              	.LC41:
 1692 0108 5645494E 		.ascii	"VEINTE\000"
 1692      544500
 1693 010f 00       		.space	1
 1694              	.LC42:
 1695 0110 323100   		.ascii	"21\000"
 1696 0113 00       		.space	1
 1697              	.LC43:
 1698 0114 5645494E 		.ascii	"VEINTIUNO\000"
 1698      5449554E 
 1698      4F00
 1699 011e 0000     		.space	2
 1700              	.LC44:
 1701 0120 323200   		.ascii	"22\000"
 1702 0123 00       		.space	1
 1703              	.LC45:
ARM GAS  C:\Users\acer\AppData\Local\Temp\ccQEWjNP.s 			page 37


 1704 0124 5645494E 		.ascii	"VEINTIDOS\000"
 1704      5449444F 
 1704      5300
 1705 012e 0000     		.space	2
 1706              	.LC46:
 1707 0130 323300   		.ascii	"23\000"
 1708 0133 00       		.space	1
 1709              	.LC47:
 1710 0134 5645494E 		.ascii	"VEINTITRES\000"
 1710      54495452 
 1710      455300
 1711 013f 00       		.space	1
 1712              	.LC48:
 1713 0140 323400   		.ascii	"24\000"
 1714 0143 00       		.space	1
 1715              	.LC49:
 1716 0144 5645494E 		.ascii	"VEINTICUATRO\000"
 1716      54494355 
 1716      4154524F 
 1716      00
 1717 0151 000000   		.space	3
 1718              	.LC50:
 1719 0154 323500   		.ascii	"25\000"
 1720 0157 00       		.space	1
 1721              	.LC51:
 1722 0158 5645494E 		.ascii	"VEINTICINCO\000"
 1722      54494349 
 1722      4E434F00 
 1723              	.LC52:
 1724 0164 323600   		.ascii	"26\000"
 1725 0167 00       		.space	1
 1726              	.LC53:
 1727 0168 5645494E 		.ascii	"VEINTISEIS\000"
 1727      54495345 
 1727      495300
 1728 0173 00       		.space	1
 1729              	.LC54:
 1730 0174 323700   		.ascii	"27\000"
 1731 0177 00       		.space	1
 1732              	.LC55:
 1733 0178 5645494E 		.ascii	"VEINTISIETE\000"
 1733      54495349 
 1733      45544500 
 1734              	.LC56:
 1735 0184 323800   		.ascii	"28\000"
 1736 0187 00       		.space	1
 1737              	.LC57:
 1738 0188 5645494E 		.ascii	"VEINTIOCHO\000"
 1738      54494F43 
 1738      484F00
 1739 0193 00       		.space	1
 1740              	.LC58:
 1741 0194 323900   		.ascii	"29\000"
 1742 0197 00       		.space	1
 1743              	.LC59:
 1744 0198 5645494E 		.ascii	"VEINTINUEVE\000"
 1744      54494E55 
ARM GAS  C:\Users\acer\AppData\Local\Temp\ccQEWjNP.s 			page 38


 1744      45564500 
 1745              	.LC60:
 1746 01a4 333000   		.ascii	"30\000"
 1747 01a7 00       		.space	1
 1748              	.LC61:
 1749 01a8 54524549 		.ascii	"TREINTA\000"
 1749      4E544100 
 1750              	.LC62:
 1751 01b0 333100   		.ascii	"31\000"
 1752 01b3 00       		.space	1
 1753              	.LC63:
 1754 01b4 54524549 		.ascii	"TREINTAIUNO\000"
 1754      4E544149 
 1754      554E4F00 
 1755              		.text
 1756              	.Letext0:
 1757              		.file 2 "c:\\program files (x86)\\cypress\\psoc creator\\4.2\\psoc creator\\import\\gnu\\arm\\5.4.
 1758              		.file 3 "c:\\program files (x86)\\cypress\\psoc creator\\4.2\\psoc creator\\import\\gnu\\arm\\5.4.
 1759              		.file 4 "Generated_Source\\PSoC5/LCD.h"
 1760              		.file 5 "Generated_Source\\PSoC5/Pin_1.h"
 1761              		.file 6 "Generated_Source\\PSoC5/Pin_2.h"
 1762              		.file 7 "Generated_Source\\PSoC5/Pin_3.h"
 1763              		.file 8 "Generated_Source\\PSoC5/Pin_4.h"
 1764              		.file 9 "Generated_Source\\PSoC5/Pin_5.h"
 1765              		.file 10 "Generated_Source\\PSoC5/CyLib.h"
 1766              		.file 11 "Generated_Source\\PSoC5/core_cm3.h"