ARM GAS  C:\Users\acer\AppData\Local\Temp\ccaZesS6.s 			page 1


   1              		.syntax unified
   2              		.cpu cortex-m3
   3              		.fpu softvfp
   4              		.eabi_attribute 20, 1
   5              		.eabi_attribute 21, 1
   6              		.eabi_attribute 23, 3
   7              		.eabi_attribute 24, 1
   8              		.eabi_attribute 25, 1
   9              		.eabi_attribute 26, 1
  10              		.eabi_attribute 30, 1
  11              		.eabi_attribute 34, 1
  12              		.eabi_attribute 18, 4
  13              		.thumb
  14              		.syntax unified
  15              		.file	"main.c"
  16              		.text
  17              	.Ltext0:
  18              		.cfi_sections	.debug_frame
  19              		.section	.text.Interrupcion,"ax",%progbits
  20              		.align	2
  21              		.global	Interrupcion
  22              		.thumb
  23              		.thumb_func
  24              		.type	Interrupcion, %function
  25              	Interrupcion:
  26              	.LFB63:
  27              		.file 1 "main.c"
   1:main.c        **** /* ========================================
   2:main.c        ****  *
   3:main.c        ****  * Copyright YOUR COMPANY, THE YEAR
   4:main.c        ****  * All Rights Reserved
   5:main.c        ****  * UNPUBLISHED, LICENSED SOFTWARE.
   6:main.c        ****  *
   7:main.c        ****  * CONFIDENTIAL AND PROPRIETARY INFORMATION
   8:main.c        ****  * WHICH IS THE PROPERTY OF your company.
   9:main.c        ****  *
  10:main.c        ****  * ========================================
  11:main.c        **** */
  12:main.c        **** #include "project.h"
  13:main.c        **** CY_ISR(Interrupcion){
  28              		.loc 1 13 0
  29              		.cfi_startproc
  30              		@ args = 0, pretend = 0, frame = 0
  31              		@ frame_needed = 0, uses_anonymous_args = 0
  32 0000 08B5     		push	{r3, lr}
  33              		.cfi_def_cfa_offset 8
  34              		.cfi_offset 3, -8
  35              		.cfi_offset 14, -4
  14:main.c        ****     FOCO_Write(~FOCO_Read());
  36              		.loc 1 14 0
  37 0002 FFF7FEFF 		bl	FOCO_Read
  38              	.LVL0:
  39 0006 C043     		mvns	r0, r0
  40 0008 C0B2     		uxtb	r0, r0
  41 000a FFF7FEFF 		bl	FOCO_Write
  42              	.LVL1:
  15:main.c        ****     Sw1_ClearInterrupt();
ARM GAS  C:\Users\acer\AppData\Local\Temp\ccaZesS6.s 			page 2


  43              		.loc 1 15 0
  44 000e FFF7FEFF 		bl	Sw1_ClearInterrupt
  45              	.LVL2:
  46 0012 08BD     		pop	{r3, pc}
  47              		.cfi_endproc
  48              	.LFE63:
  49              		.size	Interrupcion, .-Interrupcion
  50              		.section	.text.main,"ax",%progbits
  51              		.align	2
  52              		.global	main
  53              		.thumb
  54              		.thumb_func
  55              		.type	main, %function
  56              	main:
  57              	.LFB64:
  16:main.c        **** }
  17:main.c        **** int main(void)
  18:main.c        **** {   
  58              		.loc 1 18 0
  59              		.cfi_startproc
  60              		@ Volatile: function does not return.
  61              		@ args = 0, pretend = 0, frame = 0
  62              		@ frame_needed = 0, uses_anonymous_args = 0
  63 0000 08B5     		push	{r3, lr}
  64              		.cfi_def_cfa_offset 8
  65              		.cfi_offset 3, -8
  66              		.cfi_offset 14, -4
  19:main.c        ****     void LCD_BG();
  20:main.c        ****     CyGlobalIntEnable; /* Enable global interrupts. */
  67              		.loc 1 20 0
  68              		.syntax unified
  69              	@ 20 "main.c" 1
  70 0002 62B6     		CPSIE   i
  71              	@ 0 "" 2
  21:main.c        ****     IRQ_Sw_StartEx(Interrupcion);
  72              		.loc 1 21 0
  73              		.thumb
  74              		.syntax unified
  75 0004 C648     		ldr	r0, .L27
  76 0006 FFF7FEFF 		bl	IRQ_Sw_StartEx
  77              	.LVL3:
  22:main.c        ****     /* Place your initialization/startup code here (e.g. MyInst_Start()) */
  23:main.c        ****     
  24:main.c        ****     LCD_Start();
  78              		.loc 1 24 0
  79 000a FFF7FEFF 		bl	LCD_Start
  80              	.LVL4:
  25:main.c        ****     LCD_ClearDisplay();
  81              		.loc 1 25 0
  82 000e 0120     		movs	r0, #1
  83 0010 FFF7FEFF 		bl	LCD_WriteControl
  84              	.LVL5:
  26:main.c        ****     LCD_Position(0,5);
  85              		.loc 1 26 0
  86 0014 0521     		movs	r1, #5
  87 0016 0020     		movs	r0, #0
  88 0018 FFF7FEFF 		bl	LCD_Position
ARM GAS  C:\Users\acer\AppData\Local\Temp\ccaZesS6.s 			page 3


  89              	.LVL6:
  90              	.L4:
  27:main.c        ****     
  28:main.c        ****     for(;;)
  29:main.c        ****     {
  30:main.c        ****         if(FOCO_Read())
  91              		.loc 1 30 0
  92 001c FFF7FEFF 		bl	FOCO_Read
  93              	.LVL7:
  94 0020 0028     		cmp	r0, #0
  95 0022 00F07183 		beq	.L5
  31:main.c        ****         {
  32:main.c        ****                 LCD_ClearDisplay();
  96              		.loc 1 32 0
  97 0026 0120     		movs	r0, #1
  98 0028 FFF7FEFF 		bl	LCD_WriteControl
  99              	.LVL8:
  33:main.c        ****                 LCD_Position(0,4);
 100              		.loc 1 33 0
 101 002c 0421     		movs	r1, #4
 102 002e 0020     		movs	r0, #0
 103 0030 FFF7FEFF 		bl	LCD_Position
 104              	.LVL9:
  34:main.c        ****                 LCD_PrintString("LEDS  ON");
 105              		.loc 1 34 0
 106 0034 BB48     		ldr	r0, .L27+4
 107 0036 FFF7FEFF 		bl	LCD_PrintString
 108              	.LVL10:
  35:main.c        ****                 LCD_Position(1,3);
 109              		.loc 1 35 0
 110 003a 0321     		movs	r1, #3
 111 003c 0120     		movs	r0, #1
 112 003e FFF7FEFF 		bl	LCD_Position
 113              	.LVL11:
  36:main.c        ****                 LCD_DrawHorizontalBG( 1, 0, 1, 160);
 114              		.loc 1 36 0
 115 0042 A023     		movs	r3, #160
 116 0044 0122     		movs	r2, #1
 117 0046 0021     		movs	r1, #0
 118 0048 1046     		mov	r0, r2
 119 004a FFF7FEFF 		bl	LCD_DrawHorizontalBG
 120              	.LVL12:
  37:main.c        ****                 LED1_Write(1);
 121              		.loc 1 37 0
 122 004e 0120     		movs	r0, #1
 123 0050 FFF7FEFF 		bl	LED1_Write
 124              	.LVL13:
  38:main.c        ****                 CyDelay(20);
 125              		.loc 1 38 0
 126 0054 1420     		movs	r0, #20
 127 0056 FFF7FEFF 		bl	CyDelay
 128              	.LVL14:
  39:main.c        ****                 if(FOCO_Read())
 129              		.loc 1 39 0
 130 005a FFF7FEFF 		bl	FOCO_Read
 131              	.LVL15:
 132 005e D0B1     		cbz	r0, .L6
ARM GAS  C:\Users\acer\AppData\Local\Temp\ccaZesS6.s 			page 4


  40:main.c        ****                 {
  41:main.c        ****                     LCD_ClearDisplay();
 133              		.loc 1 41 0
 134 0060 0120     		movs	r0, #1
 135 0062 FFF7FEFF 		bl	LCD_WriteControl
 136              	.LVL16:
  42:main.c        ****                     LCD_Position(0,4);
 137              		.loc 1 42 0
 138 0066 0421     		movs	r1, #4
 139 0068 0020     		movs	r0, #0
 140 006a FFF7FEFF 		bl	LCD_Position
 141              	.LVL17:
  43:main.c        ****                     LCD_PrintString("LEDS  ON");
 142              		.loc 1 43 0
 143 006e AD48     		ldr	r0, .L27+4
 144 0070 FFF7FEFF 		bl	LCD_PrintString
 145              	.LVL18:
  44:main.c        ****                     LCD_Position(1,3);
 146              		.loc 1 44 0
 147 0074 0321     		movs	r1, #3
 148 0076 0120     		movs	r0, #1
 149 0078 FFF7FEFF 		bl	LCD_Position
 150              	.LVL19:
  45:main.c        ****                     LCD_DrawHorizontalBG( 1, 0, 2, 160);
 151              		.loc 1 45 0
 152 007c A023     		movs	r3, #160
 153 007e 0222     		movs	r2, #2
 154 0080 0021     		movs	r1, #0
 155 0082 0120     		movs	r0, #1
 156 0084 FFF7FEFF 		bl	LCD_DrawHorizontalBG
 157              	.LVL20:
  46:main.c        ****                     LED2_Write(1);
 158              		.loc 1 46 0
 159 0088 0120     		movs	r0, #1
 160 008a FFF7FEFF 		bl	LED2_Write
 161              	.LVL21:
  47:main.c        ****                     CyDelay(100);
 162              		.loc 1 47 0
 163 008e 6420     		movs	r0, #100
 164 0090 FFF7FEFF 		bl	CyDelay
 165              	.LVL22:
 166 0094 32E0     		b	.L7
 167              	.L6:
  48:main.c        ****                 }else
  49:main.c        ****             {
  50:main.c        ****                    LCD_ClearDisplay();
 168              		.loc 1 50 0
 169 0096 0120     		movs	r0, #1
 170 0098 FFF7FEFF 		bl	LCD_WriteControl
 171              	.LVL23:
  51:main.c        ****                    LCD_Position(0,4);
 172              		.loc 1 51 0
 173 009c 0421     		movs	r1, #4
 174 009e 0020     		movs	r0, #0
 175 00a0 FFF7FEFF 		bl	LCD_Position
 176              	.LVL24:
  52:main.c        ****                    LCD_PrintString("LEDS OFF");
ARM GAS  C:\Users\acer\AppData\Local\Temp\ccaZesS6.s 			page 5


 177              		.loc 1 52 0
 178 00a4 A048     		ldr	r0, .L27+8
 179 00a6 FFF7FEFF 		bl	LCD_PrintString
 180              	.LVL25:
  53:main.c        ****                    LCD_Position(1,0);
 181              		.loc 1 53 0
 182 00aa 0021     		movs	r1, #0
 183 00ac 0120     		movs	r0, #1
 184 00ae FFF7FEFF 		bl	LCD_Position
 185              	.LVL26:
  54:main.c        ****                    LCD_PrintString("------FOCO------");
 186              		.loc 1 54 0
 187 00b2 9E48     		ldr	r0, .L27+12
 188 00b4 FFF7FEFF 		bl	LCD_PrintString
 189              	.LVL27:
  55:main.c        ****                    LED1_Write(0);
 190              		.loc 1 55 0
 191 00b8 0020     		movs	r0, #0
 192 00ba FFF7FEFF 		bl	LED1_Write
 193              	.LVL28:
  56:main.c        ****                    LED2_Write(0);
 194              		.loc 1 56 0
 195 00be 0020     		movs	r0, #0
 196 00c0 FFF7FEFF 		bl	LED2_Write
 197              	.LVL29:
  57:main.c        ****                    LED3_Write(0);
 198              		.loc 1 57 0
 199 00c4 0020     		movs	r0, #0
 200 00c6 FFF7FEFF 		bl	LED3_Write
 201              	.LVL30:
  58:main.c        ****                    LED4_Write(0);
 202              		.loc 1 58 0
 203 00ca 0020     		movs	r0, #0
 204 00cc FFF7FEFF 		bl	LED4_Write
 205              	.LVL31:
  59:main.c        ****                    LED5_Write(0);
 206              		.loc 1 59 0
 207 00d0 0020     		movs	r0, #0
 208 00d2 FFF7FEFF 		bl	LED5_Write
 209              	.LVL32:
  60:main.c        ****                    LED6_Write(0);
 210              		.loc 1 60 0
 211 00d6 0020     		movs	r0, #0
 212 00d8 FFF7FEFF 		bl	LED6_Write
 213              	.LVL33:
  61:main.c        ****                    LED7_Write(0);
 214              		.loc 1 61 0
 215 00dc 0020     		movs	r0, #0
 216 00de FFF7FEFF 		bl	LED7_Write
 217              	.LVL34:
  62:main.c        ****                    LED8_Write(0);
 218              		.loc 1 62 0
 219 00e2 0020     		movs	r0, #0
 220 00e4 FFF7FEFF 		bl	LED8_Write
 221              	.LVL35:
  63:main.c        ****                    LED9_Write(0);
 222              		.loc 1 63 0
ARM GAS  C:\Users\acer\AppData\Local\Temp\ccaZesS6.s 			page 6


 223 00e8 0020     		movs	r0, #0
 224 00ea FFF7FEFF 		bl	LED9_Write
 225              	.LVL36:
  64:main.c        ****                    LED10_Write(0);
 226              		.loc 1 64 0
 227 00ee 0020     		movs	r0, #0
 228 00f0 FFF7FEFF 		bl	LED10_Write
 229              	.LVL37:
  65:main.c        ****                    CyDelay(500);  
 230              		.loc 1 65 0
 231 00f4 4FF4FA70 		mov	r0, #500
 232 00f8 FFF7FEFF 		bl	CyDelay
 233              	.LVL38:
 234              	.L7:
  66:main.c        ****             }
  67:main.c        ****                 if(FOCO_Read())
 235              		.loc 1 67 0
 236 00fc FFF7FEFF 		bl	FOCO_Read
 237              	.LVL39:
 238 0100 D0B1     		cbz	r0, .L8
  68:main.c        ****                 {
  69:main.c        ****                     LCD_ClearDisplay();
 239              		.loc 1 69 0
 240 0102 0120     		movs	r0, #1
 241 0104 FFF7FEFF 		bl	LCD_WriteControl
 242              	.LVL40:
  70:main.c        ****                     LCD_Position(0,4);
 243              		.loc 1 70 0
 244 0108 0421     		movs	r1, #4
 245 010a 0020     		movs	r0, #0
 246 010c FFF7FEFF 		bl	LCD_Position
 247              	.LVL41:
  71:main.c        ****                     LCD_PrintString("LEDS  ON");
 248              		.loc 1 71 0
 249 0110 8448     		ldr	r0, .L27+4
 250 0112 FFF7FEFF 		bl	LCD_PrintString
 251              	.LVL42:
  72:main.c        ****                     LCD_Position(1,3);
 252              		.loc 1 72 0
 253 0116 0321     		movs	r1, #3
 254 0118 0120     		movs	r0, #1
 255 011a FFF7FEFF 		bl	LCD_Position
 256              	.LVL43:
  73:main.c        ****                     LCD_DrawHorizontalBG( 1, 0, 3, 160);
 257              		.loc 1 73 0
 258 011e A023     		movs	r3, #160
 259 0120 0322     		movs	r2, #3
 260 0122 0021     		movs	r1, #0
 261 0124 0120     		movs	r0, #1
 262 0126 FFF7FEFF 		bl	LCD_DrawHorizontalBG
 263              	.LVL44:
  74:main.c        ****                     LED3_Write(1);
 264              		.loc 1 74 0
 265 012a 0120     		movs	r0, #1
 266 012c FFF7FEFF 		bl	LED3_Write
 267              	.LVL45:
  75:main.c        ****                     CyDelay(100);
ARM GAS  C:\Users\acer\AppData\Local\Temp\ccaZesS6.s 			page 7


 268              		.loc 1 75 0
 269 0130 6420     		movs	r0, #100
 270 0132 FFF7FEFF 		bl	CyDelay
 271              	.LVL46:
 272 0136 32E0     		b	.L9
 273              	.L8:
  76:main.c        ****                   }else
  77:main.c        ****             {
  78:main.c        ****                    LCD_ClearDisplay();
 274              		.loc 1 78 0
 275 0138 0120     		movs	r0, #1
 276 013a FFF7FEFF 		bl	LCD_WriteControl
 277              	.LVL47:
  79:main.c        ****                    LCD_Position(0,4);
 278              		.loc 1 79 0
 279 013e 0421     		movs	r1, #4
 280 0140 0020     		movs	r0, #0
 281 0142 FFF7FEFF 		bl	LCD_Position
 282              	.LVL48:
  80:main.c        ****                    LCD_PrintString("LEDS OFF");
 283              		.loc 1 80 0
 284 0146 7848     		ldr	r0, .L27+8
 285 0148 FFF7FEFF 		bl	LCD_PrintString
 286              	.LVL49:
  81:main.c        ****                    LCD_Position(1,0);
 287              		.loc 1 81 0
 288 014c 0021     		movs	r1, #0
 289 014e 0120     		movs	r0, #1
 290 0150 FFF7FEFF 		bl	LCD_Position
 291              	.LVL50:
  82:main.c        ****                    LCD_PrintString("------FOCO------");
 292              		.loc 1 82 0
 293 0154 7548     		ldr	r0, .L27+12
 294 0156 FFF7FEFF 		bl	LCD_PrintString
 295              	.LVL51:
  83:main.c        ****                    LED1_Write(0);
 296              		.loc 1 83 0
 297 015a 0020     		movs	r0, #0
 298 015c FFF7FEFF 		bl	LED1_Write
 299              	.LVL52:
  84:main.c        ****                    LED2_Write(0);
 300              		.loc 1 84 0
 301 0160 0020     		movs	r0, #0
 302 0162 FFF7FEFF 		bl	LED2_Write
 303              	.LVL53:
  85:main.c        ****                    LED3_Write(0);
 304              		.loc 1 85 0
 305 0166 0020     		movs	r0, #0
 306 0168 FFF7FEFF 		bl	LED3_Write
 307              	.LVL54:
  86:main.c        ****                    LED4_Write(0);
 308              		.loc 1 86 0
 309 016c 0020     		movs	r0, #0
 310 016e FFF7FEFF 		bl	LED4_Write
 311              	.LVL55:
  87:main.c        ****                    LED5_Write(0);
 312              		.loc 1 87 0
ARM GAS  C:\Users\acer\AppData\Local\Temp\ccaZesS6.s 			page 8


 313 0172 0020     		movs	r0, #0
 314 0174 FFF7FEFF 		bl	LED5_Write
 315              	.LVL56:
  88:main.c        ****                    LED6_Write(0);
 316              		.loc 1 88 0
 317 0178 0020     		movs	r0, #0
 318 017a FFF7FEFF 		bl	LED6_Write
 319              	.LVL57:
  89:main.c        ****                    LED7_Write(0);
 320              		.loc 1 89 0
 321 017e 0020     		movs	r0, #0
 322 0180 FFF7FEFF 		bl	LED7_Write
 323              	.LVL58:
  90:main.c        ****                    LED8_Write(0);
 324              		.loc 1 90 0
 325 0184 0020     		movs	r0, #0
 326 0186 FFF7FEFF 		bl	LED8_Write
 327              	.LVL59:
  91:main.c        ****                    LED9_Write(0);
 328              		.loc 1 91 0
 329 018a 0020     		movs	r0, #0
 330 018c FFF7FEFF 		bl	LED9_Write
 331              	.LVL60:
  92:main.c        ****                    LED10_Write(0);
 332              		.loc 1 92 0
 333 0190 0020     		movs	r0, #0
 334 0192 FFF7FEFF 		bl	LED10_Write
 335              	.LVL61:
  93:main.c        ****                    CyDelay(500);  
 336              		.loc 1 93 0
 337 0196 4FF4FA70 		mov	r0, #500
 338 019a FFF7FEFF 		bl	CyDelay
 339              	.LVL62:
 340              	.L9:
  94:main.c        ****             }
  95:main.c        ****                 if(FOCO_Read())
 341              		.loc 1 95 0
 342 019e FFF7FEFF 		bl	FOCO_Read
 343              	.LVL63:
 344 01a2 D0B1     		cbz	r0, .L10
  96:main.c        ****                 {
  97:main.c        ****                 LCD_ClearDisplay();
 345              		.loc 1 97 0
 346 01a4 0120     		movs	r0, #1
 347 01a6 FFF7FEFF 		bl	LCD_WriteControl
 348              	.LVL64:
  98:main.c        ****                 LCD_Position(0,4);
 349              		.loc 1 98 0
 350 01aa 0421     		movs	r1, #4
 351 01ac 0020     		movs	r0, #0
 352 01ae FFF7FEFF 		bl	LCD_Position
 353              	.LVL65:
  99:main.c        ****                 LCD_PrintString("LEDS  ON");
 354              		.loc 1 99 0
 355 01b2 5C48     		ldr	r0, .L27+4
 356 01b4 FFF7FEFF 		bl	LCD_PrintString
 357              	.LVL66:
ARM GAS  C:\Users\acer\AppData\Local\Temp\ccaZesS6.s 			page 9


 100:main.c        ****                 LCD_Position(1,3);
 358              		.loc 1 100 0
 359 01b8 0321     		movs	r1, #3
 360 01ba 0120     		movs	r0, #1
 361 01bc FFF7FEFF 		bl	LCD_Position
 362              	.LVL67:
 101:main.c        ****                 LCD_DrawHorizontalBG( 1, 0, 4, 160);
 363              		.loc 1 101 0
 364 01c0 A023     		movs	r3, #160
 365 01c2 0422     		movs	r2, #4
 366 01c4 0021     		movs	r1, #0
 367 01c6 0120     		movs	r0, #1
 368 01c8 FFF7FEFF 		bl	LCD_DrawHorizontalBG
 369              	.LVL68:
 102:main.c        ****                 LED4_Write(1);
 370              		.loc 1 102 0
 371 01cc 0120     		movs	r0, #1
 372 01ce FFF7FEFF 		bl	LED4_Write
 373              	.LVL69:
 103:main.c        ****                 CyDelay(100);
 374              		.loc 1 103 0
 375 01d2 6420     		movs	r0, #100
 376 01d4 FFF7FEFF 		bl	CyDelay
 377              	.LVL70:
 378 01d8 32E0     		b	.L11
 379              	.L10:
 104:main.c        ****                 }else
 105:main.c        ****             {
 106:main.c        ****                    LCD_ClearDisplay();
 380              		.loc 1 106 0
 381 01da 0120     		movs	r0, #1
 382 01dc FFF7FEFF 		bl	LCD_WriteControl
 383              	.LVL71:
 107:main.c        ****                    LCD_Position(0,0);
 384              		.loc 1 107 0
 385 01e0 0021     		movs	r1, #0
 386 01e2 0846     		mov	r0, r1
 387 01e4 FFF7FEFF 		bl	LCD_Position
 388              	.LVL72:
 108:main.c        ****                    LCD_PrintString("LEDS OFF");
 389              		.loc 1 108 0
 390 01e8 4F48     		ldr	r0, .L27+8
 391 01ea FFF7FEFF 		bl	LCD_PrintString
 392              	.LVL73:
 109:main.c        ****                    LCD_Position(1,4);
 393              		.loc 1 109 0
 394 01ee 0421     		movs	r1, #4
 395 01f0 0120     		movs	r0, #1
 396 01f2 FFF7FEFF 		bl	LCD_Position
 397              	.LVL74:
 110:main.c        ****                    LCD_PrintString("------FOCO------");
 398              		.loc 1 110 0
 399 01f6 4D48     		ldr	r0, .L27+12
 400 01f8 FFF7FEFF 		bl	LCD_PrintString
 401              	.LVL75:
 111:main.c        ****                    LED1_Write(0);
 402              		.loc 1 111 0
ARM GAS  C:\Users\acer\AppData\Local\Temp\ccaZesS6.s 			page 10


 403 01fc 0020     		movs	r0, #0
 404 01fe FFF7FEFF 		bl	LED1_Write
 405              	.LVL76:
 112:main.c        ****                    LED2_Write(0);
 406              		.loc 1 112 0
 407 0202 0020     		movs	r0, #0
 408 0204 FFF7FEFF 		bl	LED2_Write
 409              	.LVL77:
 113:main.c        ****                    LED3_Write(0);
 410              		.loc 1 113 0
 411 0208 0020     		movs	r0, #0
 412 020a FFF7FEFF 		bl	LED3_Write
 413              	.LVL78:
 114:main.c        ****                    LED4_Write(0);
 414              		.loc 1 114 0
 415 020e 0020     		movs	r0, #0
 416 0210 FFF7FEFF 		bl	LED4_Write
 417              	.LVL79:
 115:main.c        ****                    LED5_Write(0);
 418              		.loc 1 115 0
 419 0214 0020     		movs	r0, #0
 420 0216 FFF7FEFF 		bl	LED5_Write
 421              	.LVL80:
 116:main.c        ****                    LED6_Write(0);
 422              		.loc 1 116 0
 423 021a 0020     		movs	r0, #0
 424 021c FFF7FEFF 		bl	LED6_Write
 425              	.LVL81:
 117:main.c        ****                    LED7_Write(0);
 426              		.loc 1 117 0
 427 0220 0020     		movs	r0, #0
 428 0222 FFF7FEFF 		bl	LED7_Write
 429              	.LVL82:
 118:main.c        ****                    LED8_Write(0);
 430              		.loc 1 118 0
 431 0226 0020     		movs	r0, #0
 432 0228 FFF7FEFF 		bl	LED8_Write
 433              	.LVL83:
 119:main.c        ****                    LED9_Write(0);
 434              		.loc 1 119 0
 435 022c 0020     		movs	r0, #0
 436 022e FFF7FEFF 		bl	LED9_Write
 437              	.LVL84:
 120:main.c        ****                    LED10_Write(0);
 438              		.loc 1 120 0
 439 0232 0020     		movs	r0, #0
 440 0234 FFF7FEFF 		bl	LED10_Write
 441              	.LVL85:
 121:main.c        ****                    CyDelay(500);  
 442              		.loc 1 121 0
 443 0238 4FF4FA70 		mov	r0, #500
 444 023c FFF7FEFF 		bl	CyDelay
 445              	.LVL86:
 446              	.L11:
 122:main.c        ****             }
 123:main.c        ****                 if(FOCO_Read())
 447              		.loc 1 123 0
ARM GAS  C:\Users\acer\AppData\Local\Temp\ccaZesS6.s 			page 11


 448 0240 FFF7FEFF 		bl	FOCO_Read
 449              	.LVL87:
 450 0244 D0B1     		cbz	r0, .L12
 124:main.c        ****                 {
 125:main.c        ****                 LCD_ClearDisplay();
 451              		.loc 1 125 0
 452 0246 0120     		movs	r0, #1
 453 0248 FFF7FEFF 		bl	LCD_WriteControl
 454              	.LVL88:
 126:main.c        ****                 LCD_Position(0,4);
 455              		.loc 1 126 0
 456 024c 0421     		movs	r1, #4
 457 024e 0020     		movs	r0, #0
 458 0250 FFF7FEFF 		bl	LCD_Position
 459              	.LVL89:
 127:main.c        ****                 LCD_PrintString("LEDS  ON");
 460              		.loc 1 127 0
 461 0254 3348     		ldr	r0, .L27+4
 462 0256 FFF7FEFF 		bl	LCD_PrintString
 463              	.LVL90:
 128:main.c        ****                 LCD_Position(1,3);
 464              		.loc 1 128 0
 465 025a 0321     		movs	r1, #3
 466 025c 0120     		movs	r0, #1
 467 025e FFF7FEFF 		bl	LCD_Position
 468              	.LVL91:
 129:main.c        ****                 LCD_DrawHorizontalBG( 1, 0, 5, 160);
 469              		.loc 1 129 0
 470 0262 A023     		movs	r3, #160
 471 0264 0522     		movs	r2, #5
 472 0266 0021     		movs	r1, #0
 473 0268 0120     		movs	r0, #1
 474 026a FFF7FEFF 		bl	LCD_DrawHorizontalBG
 475              	.LVL92:
 130:main.c        ****                 LED5_Write(1);
 476              		.loc 1 130 0
 477 026e 0120     		movs	r0, #1
 478 0270 FFF7FEFF 		bl	LED5_Write
 479              	.LVL93:
 131:main.c        ****                 CyDelay(100);
 480              		.loc 1 131 0
 481 0274 6420     		movs	r0, #100
 482 0276 FFF7FEFF 		bl	CyDelay
 483              	.LVL94:
 484 027a 32E0     		b	.L13
 485              	.L12:
 132:main.c        ****                 }else
 133:main.c        ****             {
 134:main.c        ****                    LCD_ClearDisplay();
 486              		.loc 1 134 0
 487 027c 0120     		movs	r0, #1
 488 027e FFF7FEFF 		bl	LCD_WriteControl
 489              	.LVL95:
 135:main.c        ****                    LCD_Position(0,0);
 490              		.loc 1 135 0
 491 0282 0021     		movs	r1, #0
 492 0284 0846     		mov	r0, r1
ARM GAS  C:\Users\acer\AppData\Local\Temp\ccaZesS6.s 			page 12


 493 0286 FFF7FEFF 		bl	LCD_Position
 494              	.LVL96:
 136:main.c        ****                    LCD_PrintString("LEDS OFF");
 495              		.loc 1 136 0
 496 028a 2748     		ldr	r0, .L27+8
 497 028c FFF7FEFF 		bl	LCD_PrintString
 498              	.LVL97:
 137:main.c        ****                    LCD_Position(1,4);
 499              		.loc 1 137 0
 500 0290 0421     		movs	r1, #4
 501 0292 0120     		movs	r0, #1
 502 0294 FFF7FEFF 		bl	LCD_Position
 503              	.LVL98:
 138:main.c        ****                    LCD_PrintString("------FOCO------");
 504              		.loc 1 138 0
 505 0298 2448     		ldr	r0, .L27+12
 506 029a FFF7FEFF 		bl	LCD_PrintString
 507              	.LVL99:
 139:main.c        ****                    LED1_Write(0);
 508              		.loc 1 139 0
 509 029e 0020     		movs	r0, #0
 510 02a0 FFF7FEFF 		bl	LED1_Write
 511              	.LVL100:
 140:main.c        ****                    LED2_Write(0);
 512              		.loc 1 140 0
 513 02a4 0020     		movs	r0, #0
 514 02a6 FFF7FEFF 		bl	LED2_Write
 515              	.LVL101:
 141:main.c        ****                    LED3_Write(0);
 516              		.loc 1 141 0
 517 02aa 0020     		movs	r0, #0
 518 02ac FFF7FEFF 		bl	LED3_Write
 519              	.LVL102:
 142:main.c        ****                    LED4_Write(0);
 520              		.loc 1 142 0
 521 02b0 0020     		movs	r0, #0
 522 02b2 FFF7FEFF 		bl	LED4_Write
 523              	.LVL103:
 143:main.c        ****                    LED5_Write(0);
 524              		.loc 1 143 0
 525 02b6 0020     		movs	r0, #0
 526 02b8 FFF7FEFF 		bl	LED5_Write
 527              	.LVL104:
 144:main.c        ****                    LED6_Write(0);
 528              		.loc 1 144 0
 529 02bc 0020     		movs	r0, #0
 530 02be FFF7FEFF 		bl	LED6_Write
 531              	.LVL105:
 145:main.c        ****                    LED7_Write(0);
 532              		.loc 1 145 0
 533 02c2 0020     		movs	r0, #0
 534 02c4 FFF7FEFF 		bl	LED7_Write
 535              	.LVL106:
 146:main.c        ****                    LED8_Write(0);
 536              		.loc 1 146 0
 537 02c8 0020     		movs	r0, #0
 538 02ca FFF7FEFF 		bl	LED8_Write
ARM GAS  C:\Users\acer\AppData\Local\Temp\ccaZesS6.s 			page 13


 539              	.LVL107:
 147:main.c        ****                    LED9_Write(0);
 540              		.loc 1 147 0
 541 02ce 0020     		movs	r0, #0
 542 02d0 FFF7FEFF 		bl	LED9_Write
 543              	.LVL108:
 148:main.c        ****                    LED10_Write(0);
 544              		.loc 1 148 0
 545 02d4 0020     		movs	r0, #0
 546 02d6 FFF7FEFF 		bl	LED10_Write
 547              	.LVL109:
 149:main.c        ****                    CyDelay(500);  
 548              		.loc 1 149 0
 549 02da 4FF4FA70 		mov	r0, #500
 550 02de FFF7FEFF 		bl	CyDelay
 551              	.LVL110:
 552              	.L13:
 150:main.c        ****             }
 151:main.c        ****                 if(FOCO_Read())
 553              		.loc 1 151 0
 554 02e2 FFF7FEFF 		bl	FOCO_Read
 555              	.LVL111:
 556 02e6 18B3     		cbz	r0, .L14
 152:main.c        ****                 {
 153:main.c        ****                 LCD_ClearDisplay();
 557              		.loc 1 153 0
 558 02e8 0120     		movs	r0, #1
 559 02ea FFF7FEFF 		bl	LCD_WriteControl
 560              	.LVL112:
 154:main.c        ****                 LCD_Position(0,4);
 561              		.loc 1 154 0
 562 02ee 0421     		movs	r1, #4
 563 02f0 0020     		movs	r0, #0
 564 02f2 FFF7FEFF 		bl	LCD_Position
 565              	.LVL113:
 155:main.c        ****                 LCD_PrintString("LEDS  ON");
 566              		.loc 1 155 0
 567 02f6 0B48     		ldr	r0, .L27+4
 568 02f8 FFF7FEFF 		bl	LCD_PrintString
 569              	.LVL114:
 156:main.c        ****                 LCD_Position(1,3);
 570              		.loc 1 156 0
 571 02fc 0321     		movs	r1, #3
 572 02fe 0120     		movs	r0, #1
 573 0300 FFF7FEFF 		bl	LCD_Position
 574              	.LVL115:
 157:main.c        ****                 LCD_DrawHorizontalBG( 1, 0, 6, 160);
 575              		.loc 1 157 0
 576 0304 A023     		movs	r3, #160
 577 0306 0622     		movs	r2, #6
 578 0308 0021     		movs	r1, #0
 579 030a 0120     		movs	r0, #1
 580 030c FFF7FEFF 		bl	LCD_DrawHorizontalBG
 581              	.LVL116:
 158:main.c        ****                 LED6_Write(1);
 582              		.loc 1 158 0
 583 0310 0120     		movs	r0, #1
ARM GAS  C:\Users\acer\AppData\Local\Temp\ccaZesS6.s 			page 14


 584 0312 FFF7FEFF 		bl	LED6_Write
 585              	.LVL117:
 159:main.c        ****                 CyDelay(100);}
 586              		.loc 1 159 0
 587 0316 6420     		movs	r0, #100
 588 0318 FFF7FEFF 		bl	CyDelay
 589              	.LVL118:
 590 031c 3BE0     		b	.L15
 591              	.L28:
 592 031e 00BF     		.align	2
 593              	.L27:
 594 0320 00000000 		.word	Interrupcion
 595 0324 00000000 		.word	.LC0
 596 0328 0C000000 		.word	.LC1
 597 032c 18000000 		.word	.LC2
 598              	.L14:
 160:main.c        ****                 else
 161:main.c        ****             {
 162:main.c        ****                    LCD_ClearDisplay();
 599              		.loc 1 162 0
 600 0330 0120     		movs	r0, #1
 601 0332 FFF7FEFF 		bl	LCD_WriteControl
 602              	.LVL119:
 163:main.c        ****                    LCD_Position(0,4);
 603              		.loc 1 163 0
 604 0336 0421     		movs	r1, #4
 605 0338 0020     		movs	r0, #0
 606 033a FFF7FEFF 		bl	LCD_Position
 607              	.LVL120:
 164:main.c        ****                    LCD_PrintString("LEDS OFF");
 608              		.loc 1 164 0
 609 033e D448     		ldr	r0, .L29
 610 0340 FFF7FEFF 		bl	LCD_PrintString
 611              	.LVL121:
 165:main.c        ****                    LCD_Position(1,0);
 612              		.loc 1 165 0
 613 0344 0021     		movs	r1, #0
 614 0346 0120     		movs	r0, #1
 615 0348 FFF7FEFF 		bl	LCD_Position
 616              	.LVL122:
 166:main.c        ****                    LCD_PrintString("------FOCO------");
 617              		.loc 1 166 0
 618 034c D148     		ldr	r0, .L29+4
 619 034e FFF7FEFF 		bl	LCD_PrintString
 620              	.LVL123:
 167:main.c        ****                    LED1_Write(0);
 621              		.loc 1 167 0
 622 0352 0020     		movs	r0, #0
 623 0354 FFF7FEFF 		bl	LED1_Write
 624              	.LVL124:
 168:main.c        ****                    LED2_Write(0);
 625              		.loc 1 168 0
 626 0358 0020     		movs	r0, #0
 627 035a FFF7FEFF 		bl	LED2_Write
 628              	.LVL125:
 169:main.c        ****                    LED3_Write(0);
 629              		.loc 1 169 0
ARM GAS  C:\Users\acer\AppData\Local\Temp\ccaZesS6.s 			page 15


 630 035e 0020     		movs	r0, #0
 631 0360 FFF7FEFF 		bl	LED3_Write
 632              	.LVL126:
 170:main.c        ****                    LED4_Write(0);
 633              		.loc 1 170 0
 634 0364 0020     		movs	r0, #0
 635 0366 FFF7FEFF 		bl	LED4_Write
 636              	.LVL127:
 171:main.c        ****                    LED5_Write(0);
 637              		.loc 1 171 0
 638 036a 0020     		movs	r0, #0
 639 036c FFF7FEFF 		bl	LED5_Write
 640              	.LVL128:
 172:main.c        ****                    LED6_Write(0);
 641              		.loc 1 172 0
 642 0370 0020     		movs	r0, #0
 643 0372 FFF7FEFF 		bl	LED6_Write
 644              	.LVL129:
 173:main.c        ****                    LED7_Write(0);
 645              		.loc 1 173 0
 646 0376 0020     		movs	r0, #0
 647 0378 FFF7FEFF 		bl	LED7_Write
 648              	.LVL130:
 174:main.c        ****                    LED8_Write(0);
 649              		.loc 1 174 0
 650 037c 0020     		movs	r0, #0
 651 037e FFF7FEFF 		bl	LED8_Write
 652              	.LVL131:
 175:main.c        ****                    LED9_Write(0);
 653              		.loc 1 175 0
 654 0382 0020     		movs	r0, #0
 655 0384 FFF7FEFF 		bl	LED9_Write
 656              	.LVL132:
 176:main.c        ****                    LED10_Write(0);
 657              		.loc 1 176 0
 658 0388 0020     		movs	r0, #0
 659 038a FFF7FEFF 		bl	LED10_Write
 660              	.LVL133:
 177:main.c        ****                    CyDelay(500);  
 661              		.loc 1 177 0
 662 038e 4FF4FA70 		mov	r0, #500
 663 0392 FFF7FEFF 		bl	CyDelay
 664              	.LVL134:
 665              	.L15:
 178:main.c        ****             }
 179:main.c        ****                 if(FOCO_Read())
 666              		.loc 1 179 0
 667 0396 FFF7FEFF 		bl	FOCO_Read
 668              	.LVL135:
 669 039a D0B1     		cbz	r0, .L16
 180:main.c        ****                 {
 181:main.c        ****                 LCD_ClearDisplay();
 670              		.loc 1 181 0
 671 039c 0120     		movs	r0, #1
 672 039e FFF7FEFF 		bl	LCD_WriteControl
 673              	.LVL136:
 182:main.c        ****                 LCD_Position(0,4);
ARM GAS  C:\Users\acer\AppData\Local\Temp\ccaZesS6.s 			page 16


 674              		.loc 1 182 0
 675 03a2 0421     		movs	r1, #4
 676 03a4 0020     		movs	r0, #0
 677 03a6 FFF7FEFF 		bl	LCD_Position
 678              	.LVL137:
 183:main.c        ****                 LCD_PrintString("LEDS  ON");
 679              		.loc 1 183 0
 680 03aa BB48     		ldr	r0, .L29+8
 681 03ac FFF7FEFF 		bl	LCD_PrintString
 682              	.LVL138:
 184:main.c        ****                 LCD_Position(1,3);
 683              		.loc 1 184 0
 684 03b0 0321     		movs	r1, #3
 685 03b2 0120     		movs	r0, #1
 686 03b4 FFF7FEFF 		bl	LCD_Position
 687              	.LVL139:
 185:main.c        ****                 LCD_DrawHorizontalBG( 1, 0, 7, 160);
 688              		.loc 1 185 0
 689 03b8 A023     		movs	r3, #160
 690 03ba 0722     		movs	r2, #7
 691 03bc 0021     		movs	r1, #0
 692 03be 0120     		movs	r0, #1
 693 03c0 FFF7FEFF 		bl	LCD_DrawHorizontalBG
 694              	.LVL140:
 186:main.c        ****                 LED7_Write(1);
 695              		.loc 1 186 0
 696 03c4 0120     		movs	r0, #1
 697 03c6 FFF7FEFF 		bl	LED7_Write
 698              	.LVL141:
 187:main.c        ****                 CyDelay(100);}
 699              		.loc 1 187 0
 700 03ca 6420     		movs	r0, #100
 701 03cc FFF7FEFF 		bl	CyDelay
 702              	.LVL142:
 703 03d0 32E0     		b	.L17
 704              	.L16:
 188:main.c        ****                 else
 189:main.c        ****             {
 190:main.c        ****                    LCD_ClearDisplay();
 705              		.loc 1 190 0
 706 03d2 0120     		movs	r0, #1
 707 03d4 FFF7FEFF 		bl	LCD_WriteControl
 708              	.LVL143:
 191:main.c        ****                    LCD_Position(0,4);
 709              		.loc 1 191 0
 710 03d8 0421     		movs	r1, #4
 711 03da 0020     		movs	r0, #0
 712 03dc FFF7FEFF 		bl	LCD_Position
 713              	.LVL144:
 192:main.c        ****                    LCD_PrintString("LEDS OFF");
 714              		.loc 1 192 0
 715 03e0 AB48     		ldr	r0, .L29
 716 03e2 FFF7FEFF 		bl	LCD_PrintString
 717              	.LVL145:
 193:main.c        ****                    LCD_Position(1,0);
 718              		.loc 1 193 0
 719 03e6 0021     		movs	r1, #0
ARM GAS  C:\Users\acer\AppData\Local\Temp\ccaZesS6.s 			page 17


 720 03e8 0120     		movs	r0, #1
 721 03ea FFF7FEFF 		bl	LCD_Position
 722              	.LVL146:
 194:main.c        ****                    LCD_PrintString("------FOCO------");
 723              		.loc 1 194 0
 724 03ee A948     		ldr	r0, .L29+4
 725 03f0 FFF7FEFF 		bl	LCD_PrintString
 726              	.LVL147:
 195:main.c        ****                    LED1_Write(0);
 727              		.loc 1 195 0
 728 03f4 0020     		movs	r0, #0
 729 03f6 FFF7FEFF 		bl	LED1_Write
 730              	.LVL148:
 196:main.c        ****                    LED2_Write(0);
 731              		.loc 1 196 0
 732 03fa 0020     		movs	r0, #0
 733 03fc FFF7FEFF 		bl	LED2_Write
 734              	.LVL149:
 197:main.c        ****                    LED3_Write(0);
 735              		.loc 1 197 0
 736 0400 0020     		movs	r0, #0
 737 0402 FFF7FEFF 		bl	LED3_Write
 738              	.LVL150:
 198:main.c        ****                    LED4_Write(0);
 739              		.loc 1 198 0
 740 0406 0020     		movs	r0, #0
 741 0408 FFF7FEFF 		bl	LED4_Write
 742              	.LVL151:
 199:main.c        ****                    LED5_Write(0);
 743              		.loc 1 199 0
 744 040c 0020     		movs	r0, #0
 745 040e FFF7FEFF 		bl	LED5_Write
 746              	.LVL152:
 200:main.c        ****                    LED6_Write(0);
 747              		.loc 1 200 0
 748 0412 0020     		movs	r0, #0
 749 0414 FFF7FEFF 		bl	LED6_Write
 750              	.LVL153:
 201:main.c        ****                    LED7_Write(0);
 751              		.loc 1 201 0
 752 0418 0020     		movs	r0, #0
 753 041a FFF7FEFF 		bl	LED7_Write
 754              	.LVL154:
 202:main.c        ****                    LED8_Write(0);
 755              		.loc 1 202 0
 756 041e 0020     		movs	r0, #0
 757 0420 FFF7FEFF 		bl	LED8_Write
 758              	.LVL155:
 203:main.c        ****                    LED9_Write(0);
 759              		.loc 1 203 0
 760 0424 0020     		movs	r0, #0
 761 0426 FFF7FEFF 		bl	LED9_Write
 762              	.LVL156:
 204:main.c        ****                    LED10_Write(0);
 763              		.loc 1 204 0
 764 042a 0020     		movs	r0, #0
 765 042c FFF7FEFF 		bl	LED10_Write
ARM GAS  C:\Users\acer\AppData\Local\Temp\ccaZesS6.s 			page 18


 766              	.LVL157:
 205:main.c        ****                    CyDelay(500);  
 767              		.loc 1 205 0
 768 0430 4FF4FA70 		mov	r0, #500
 769 0434 FFF7FEFF 		bl	CyDelay
 770              	.LVL158:
 771              	.L17:
 206:main.c        ****             }
 207:main.c        ****                 if(FOCO_Read())
 772              		.loc 1 207 0
 773 0438 FFF7FEFF 		bl	FOCO_Read
 774              	.LVL159:
 775 043c D0B1     		cbz	r0, .L18
 208:main.c        ****                 {
 209:main.c        ****                 LCD_ClearDisplay();
 776              		.loc 1 209 0
 777 043e 0120     		movs	r0, #1
 778 0440 FFF7FEFF 		bl	LCD_WriteControl
 779              	.LVL160:
 210:main.c        ****                 LCD_Position(0,4);
 780              		.loc 1 210 0
 781 0444 0421     		movs	r1, #4
 782 0446 0020     		movs	r0, #0
 783 0448 FFF7FEFF 		bl	LCD_Position
 784              	.LVL161:
 211:main.c        ****                 LCD_PrintString("LEDS  ON");
 785              		.loc 1 211 0
 786 044c 9248     		ldr	r0, .L29+8
 787 044e FFF7FEFF 		bl	LCD_PrintString
 788              	.LVL162:
 212:main.c        ****                 LCD_Position(1,3);
 789              		.loc 1 212 0
 790 0452 0321     		movs	r1, #3
 791 0454 0120     		movs	r0, #1
 792 0456 FFF7FEFF 		bl	LCD_Position
 793              	.LVL163:
 213:main.c        ****                 LCD_DrawHorizontalBG( 1, 0, 8, 160);
 794              		.loc 1 213 0
 795 045a A023     		movs	r3, #160
 796 045c 0822     		movs	r2, #8
 797 045e 0021     		movs	r1, #0
 798 0460 0120     		movs	r0, #1
 799 0462 FFF7FEFF 		bl	LCD_DrawHorizontalBG
 800              	.LVL164:
 214:main.c        ****                 LED8_Write(1);
 801              		.loc 1 214 0
 802 0466 0120     		movs	r0, #1
 803 0468 FFF7FEFF 		bl	LED8_Write
 804              	.LVL165:
 215:main.c        ****                 CyDelay(100);}
 805              		.loc 1 215 0
 806 046c 6420     		movs	r0, #100
 807 046e FFF7FEFF 		bl	CyDelay
 808              	.LVL166:
 809 0472 32E0     		b	.L19
 810              	.L18:
 216:main.c        ****                 else
ARM GAS  C:\Users\acer\AppData\Local\Temp\ccaZesS6.s 			page 19


 217:main.c        ****             {
 218:main.c        ****                    LCD_ClearDisplay();
 811              		.loc 1 218 0
 812 0474 0120     		movs	r0, #1
 813 0476 FFF7FEFF 		bl	LCD_WriteControl
 814              	.LVL167:
 219:main.c        ****                    LCD_Position(0,4);
 815              		.loc 1 219 0
 816 047a 0421     		movs	r1, #4
 817 047c 0020     		movs	r0, #0
 818 047e FFF7FEFF 		bl	LCD_Position
 819              	.LVL168:
 220:main.c        ****                    LCD_PrintString("LEDS OFF");
 820              		.loc 1 220 0
 821 0482 8348     		ldr	r0, .L29
 822 0484 FFF7FEFF 		bl	LCD_PrintString
 823              	.LVL169:
 221:main.c        ****                    LCD_Position(1,0);
 824              		.loc 1 221 0
 825 0488 0021     		movs	r1, #0
 826 048a 0120     		movs	r0, #1
 827 048c FFF7FEFF 		bl	LCD_Position
 828              	.LVL170:
 222:main.c        ****                    LCD_PrintString("------FOCO------");
 829              		.loc 1 222 0
 830 0490 8048     		ldr	r0, .L29+4
 831 0492 FFF7FEFF 		bl	LCD_PrintString
 832              	.LVL171:
 223:main.c        ****                    LED1_Write(0);
 833              		.loc 1 223 0
 834 0496 0020     		movs	r0, #0
 835 0498 FFF7FEFF 		bl	LED1_Write
 836              	.LVL172:
 224:main.c        ****                    LED2_Write(0);
 837              		.loc 1 224 0
 838 049c 0020     		movs	r0, #0
 839 049e FFF7FEFF 		bl	LED2_Write
 840              	.LVL173:
 225:main.c        ****                    LED3_Write(0);
 841              		.loc 1 225 0
 842 04a2 0020     		movs	r0, #0
 843 04a4 FFF7FEFF 		bl	LED3_Write
 844              	.LVL174:
 226:main.c        ****                    LED4_Write(0);
 845              		.loc 1 226 0
 846 04a8 0020     		movs	r0, #0
 847 04aa FFF7FEFF 		bl	LED4_Write
 848              	.LVL175:
 227:main.c        ****                    LED5_Write(0);
 849              		.loc 1 227 0
 850 04ae 0020     		movs	r0, #0
 851 04b0 FFF7FEFF 		bl	LED5_Write
 852              	.LVL176:
 228:main.c        ****                    LED6_Write(0);
 853              		.loc 1 228 0
 854 04b4 0020     		movs	r0, #0
 855 04b6 FFF7FEFF 		bl	LED6_Write
ARM GAS  C:\Users\acer\AppData\Local\Temp\ccaZesS6.s 			page 20


 856              	.LVL177:
 229:main.c        ****                    LED7_Write(0);
 857              		.loc 1 229 0
 858 04ba 0020     		movs	r0, #0
 859 04bc FFF7FEFF 		bl	LED7_Write
 860              	.LVL178:
 230:main.c        ****                    LED8_Write(0);
 861              		.loc 1 230 0
 862 04c0 0020     		movs	r0, #0
 863 04c2 FFF7FEFF 		bl	LED8_Write
 864              	.LVL179:
 231:main.c        ****                    LED9_Write(0);
 865              		.loc 1 231 0
 866 04c6 0020     		movs	r0, #0
 867 04c8 FFF7FEFF 		bl	LED9_Write
 868              	.LVL180:
 232:main.c        ****                    LED10_Write(0);
 869              		.loc 1 232 0
 870 04cc 0020     		movs	r0, #0
 871 04ce FFF7FEFF 		bl	LED10_Write
 872              	.LVL181:
 233:main.c        ****                    CyDelay(500);  
 873              		.loc 1 233 0
 874 04d2 4FF4FA70 		mov	r0, #500
 875 04d6 FFF7FEFF 		bl	CyDelay
 876              	.LVL182:
 877              	.L19:
 234:main.c        ****             }
 235:main.c        ****                 if(FOCO_Read())
 878              		.loc 1 235 0
 879 04da FFF7FEFF 		bl	FOCO_Read
 880              	.LVL183:
 881 04de D0B1     		cbz	r0, .L20
 236:main.c        ****                 {
 237:main.c        ****                 LCD_ClearDisplay();
 882              		.loc 1 237 0
 883 04e0 0120     		movs	r0, #1
 884 04e2 FFF7FEFF 		bl	LCD_WriteControl
 885              	.LVL184:
 238:main.c        ****                 LCD_Position(0,4);
 886              		.loc 1 238 0
 887 04e6 0421     		movs	r1, #4
 888 04e8 0020     		movs	r0, #0
 889 04ea FFF7FEFF 		bl	LCD_Position
 890              	.LVL185:
 239:main.c        ****                 LCD_PrintString("LEDS  ON");
 891              		.loc 1 239 0
 892 04ee 6A48     		ldr	r0, .L29+8
 893 04f0 FFF7FEFF 		bl	LCD_PrintString
 894              	.LVL186:
 240:main.c        ****                 LCD_Position(1,3);
 895              		.loc 1 240 0
 896 04f4 0321     		movs	r1, #3
 897 04f6 0120     		movs	r0, #1
 898 04f8 FFF7FEFF 		bl	LCD_Position
 899              	.LVL187:
 241:main.c        ****                 LCD_DrawHorizontalBG( 1, 0, 9, 160);
ARM GAS  C:\Users\acer\AppData\Local\Temp\ccaZesS6.s 			page 21


 900              		.loc 1 241 0
 901 04fc A023     		movs	r3, #160
 902 04fe 0922     		movs	r2, #9
 903 0500 0021     		movs	r1, #0
 904 0502 0120     		movs	r0, #1
 905 0504 FFF7FEFF 		bl	LCD_DrawHorizontalBG
 906              	.LVL188:
 242:main.c        ****                 LED9_Write(1);
 907              		.loc 1 242 0
 908 0508 0120     		movs	r0, #1
 909 050a FFF7FEFF 		bl	LED9_Write
 910              	.LVL189:
 243:main.c        ****                 CyDelay(100);}
 911              		.loc 1 243 0
 912 050e 6420     		movs	r0, #100
 913 0510 FFF7FEFF 		bl	CyDelay
 914              	.LVL190:
 915 0514 32E0     		b	.L21
 916              	.L20:
 244:main.c        ****                 else
 245:main.c        ****             {
 246:main.c        ****                    LCD_ClearDisplay();
 917              		.loc 1 246 0
 918 0516 0120     		movs	r0, #1
 919 0518 FFF7FEFF 		bl	LCD_WriteControl
 920              	.LVL191:
 247:main.c        ****                    LCD_Position(0,4);
 921              		.loc 1 247 0
 922 051c 0421     		movs	r1, #4
 923 051e 0020     		movs	r0, #0
 924 0520 FFF7FEFF 		bl	LCD_Position
 925              	.LVL192:
 248:main.c        ****                    LCD_PrintString("LEDS OFF");
 926              		.loc 1 248 0
 927 0524 5A48     		ldr	r0, .L29
 928 0526 FFF7FEFF 		bl	LCD_PrintString
 929              	.LVL193:
 249:main.c        ****                    LCD_Position(1,0);
 930              		.loc 1 249 0
 931 052a 0021     		movs	r1, #0
 932 052c 0120     		movs	r0, #1
 933 052e FFF7FEFF 		bl	LCD_Position
 934              	.LVL194:
 250:main.c        ****                    LCD_PrintString("------FOCO------");
 935              		.loc 1 250 0
 936 0532 5848     		ldr	r0, .L29+4
 937 0534 FFF7FEFF 		bl	LCD_PrintString
 938              	.LVL195:
 251:main.c        ****                    LED1_Write(0);
 939              		.loc 1 251 0
 940 0538 0020     		movs	r0, #0
 941 053a FFF7FEFF 		bl	LED1_Write
 942              	.LVL196:
 252:main.c        ****                    LED2_Write(0);
 943              		.loc 1 252 0
 944 053e 0020     		movs	r0, #0
 945 0540 FFF7FEFF 		bl	LED2_Write
ARM GAS  C:\Users\acer\AppData\Local\Temp\ccaZesS6.s 			page 22


 946              	.LVL197:
 253:main.c        ****                    LED3_Write(0);
 947              		.loc 1 253 0
 948 0544 0020     		movs	r0, #0
 949 0546 FFF7FEFF 		bl	LED3_Write
 950              	.LVL198:
 254:main.c        ****                    LED4_Write(0);
 951              		.loc 1 254 0
 952 054a 0020     		movs	r0, #0
 953 054c FFF7FEFF 		bl	LED4_Write
 954              	.LVL199:
 255:main.c        ****                    LED5_Write(0);
 955              		.loc 1 255 0
 956 0550 0020     		movs	r0, #0
 957 0552 FFF7FEFF 		bl	LED5_Write
 958              	.LVL200:
 256:main.c        ****                    LED6_Write(0);
 959              		.loc 1 256 0
 960 0556 0020     		movs	r0, #0
 961 0558 FFF7FEFF 		bl	LED6_Write
 962              	.LVL201:
 257:main.c        ****                    LED7_Write(0);
 963              		.loc 1 257 0
 964 055c 0020     		movs	r0, #0
 965 055e FFF7FEFF 		bl	LED7_Write
 966              	.LVL202:
 258:main.c        ****                    LED8_Write(0);
 967              		.loc 1 258 0
 968 0562 0020     		movs	r0, #0
 969 0564 FFF7FEFF 		bl	LED8_Write
 970              	.LVL203:
 259:main.c        ****                    LED9_Write(0);
 971              		.loc 1 259 0
 972 0568 0020     		movs	r0, #0
 973 056a FFF7FEFF 		bl	LED9_Write
 974              	.LVL204:
 260:main.c        ****                    LED10_Write(0);
 975              		.loc 1 260 0
 976 056e 0020     		movs	r0, #0
 977 0570 FFF7FEFF 		bl	LED10_Write
 978              	.LVL205:
 261:main.c        ****                    CyDelay(500);  
 979              		.loc 1 261 0
 980 0574 4FF4FA70 		mov	r0, #500
 981 0578 FFF7FEFF 		bl	CyDelay
 982              	.LVL206:
 983              	.L21:
 262:main.c        ****             }
 263:main.c        ****                 if(FOCO_Read())
 984              		.loc 1 263 0
 985 057c FFF7FEFF 		bl	FOCO_Read
 986              	.LVL207:
 987 0580 D0B1     		cbz	r0, .L22
 264:main.c        ****                 {
 265:main.c        ****                 LCD_ClearDisplay();
 988              		.loc 1 265 0
 989 0582 0120     		movs	r0, #1
ARM GAS  C:\Users\acer\AppData\Local\Temp\ccaZesS6.s 			page 23


 990 0584 FFF7FEFF 		bl	LCD_WriteControl
 991              	.LVL208:
 266:main.c        ****                 LCD_Position(0,4);
 992              		.loc 1 266 0
 993 0588 0421     		movs	r1, #4
 994 058a 0020     		movs	r0, #0
 995 058c FFF7FEFF 		bl	LCD_Position
 996              	.LVL209:
 267:main.c        ****                 LCD_PrintString("LEDS  ON");
 997              		.loc 1 267 0
 998 0590 4148     		ldr	r0, .L29+8
 999 0592 FFF7FEFF 		bl	LCD_PrintString
 1000              	.LVL210:
 268:main.c        ****                 LCD_Position(1,3);
 1001              		.loc 1 268 0
 1002 0596 0321     		movs	r1, #3
 1003 0598 0120     		movs	r0, #1
 1004 059a FFF7FEFF 		bl	LCD_Position
 1005              	.LVL211:
 269:main.c        ****                 LCD_DrawHorizontalBG( 1, 0, 10, 160);
 1006              		.loc 1 269 0
 1007 059e A023     		movs	r3, #160
 1008 05a0 0A22     		movs	r2, #10
 1009 05a2 0021     		movs	r1, #0
 1010 05a4 0120     		movs	r0, #1
 1011 05a6 FFF7FEFF 		bl	LCD_DrawHorizontalBG
 1012              	.LVL212:
 270:main.c        ****                 LED10_Write(1);
 1013              		.loc 1 270 0
 1014 05aa 0120     		movs	r0, #1
 1015 05ac FFF7FEFF 		bl	LED10_Write
 1016              	.LVL213:
 271:main.c        ****                 CyDelay(100);}
 1017              		.loc 1 271 0
 1018 05b0 6420     		movs	r0, #100
 1019 05b2 FFF7FEFF 		bl	CyDelay
 1020              	.LVL214:
 1021 05b6 32E0     		b	.L23
 1022              	.L22:
 272:main.c        ****                 else
 273:main.c        ****             {
 274:main.c        ****                    LCD_ClearDisplay();
 1023              		.loc 1 274 0
 1024 05b8 0120     		movs	r0, #1
 1025 05ba FFF7FEFF 		bl	LCD_WriteControl
 1026              	.LVL215:
 275:main.c        ****                    LCD_Position(0,4);
 1027              		.loc 1 275 0
 1028 05be 0421     		movs	r1, #4
 1029 05c0 0020     		movs	r0, #0
 1030 05c2 FFF7FEFF 		bl	LCD_Position
 1031              	.LVL216:
 276:main.c        ****                    LCD_PrintString("LEDS OFF");
 1032              		.loc 1 276 0
 1033 05c6 3248     		ldr	r0, .L29
 1034 05c8 FFF7FEFF 		bl	LCD_PrintString
 1035              	.LVL217:
ARM GAS  C:\Users\acer\AppData\Local\Temp\ccaZesS6.s 			page 24


 277:main.c        ****                    LCD_Position(1,0);
 1036              		.loc 1 277 0
 1037 05cc 0021     		movs	r1, #0
 1038 05ce 0120     		movs	r0, #1
 1039 05d0 FFF7FEFF 		bl	LCD_Position
 1040              	.LVL218:
 278:main.c        ****                    LCD_PrintString("------FOCO------");
 1041              		.loc 1 278 0
 1042 05d4 2F48     		ldr	r0, .L29+4
 1043 05d6 FFF7FEFF 		bl	LCD_PrintString
 1044              	.LVL219:
 279:main.c        ****                    LED1_Write(0);
 1045              		.loc 1 279 0
 1046 05da 0020     		movs	r0, #0
 1047 05dc FFF7FEFF 		bl	LED1_Write
 1048              	.LVL220:
 280:main.c        ****                    LED2_Write(0);
 1049              		.loc 1 280 0
 1050 05e0 0020     		movs	r0, #0
 1051 05e2 FFF7FEFF 		bl	LED2_Write
 1052              	.LVL221:
 281:main.c        ****                    LED3_Write(0);
 1053              		.loc 1 281 0
 1054 05e6 0020     		movs	r0, #0
 1055 05e8 FFF7FEFF 		bl	LED3_Write
 1056              	.LVL222:
 282:main.c        ****                    LED4_Write(0);
 1057              		.loc 1 282 0
 1058 05ec 0020     		movs	r0, #0
 1059 05ee FFF7FEFF 		bl	LED4_Write
 1060              	.LVL223:
 283:main.c        ****                    LED5_Write(0);
 1061              		.loc 1 283 0
 1062 05f2 0020     		movs	r0, #0
 1063 05f4 FFF7FEFF 		bl	LED5_Write
 1064              	.LVL224:
 284:main.c        ****                    LED6_Write(0);
 1065              		.loc 1 284 0
 1066 05f8 0020     		movs	r0, #0
 1067 05fa FFF7FEFF 		bl	LED6_Write
 1068              	.LVL225:
 285:main.c        ****                    LED7_Write(0);
 1069              		.loc 1 285 0
 1070 05fe 0020     		movs	r0, #0
 1071 0600 FFF7FEFF 		bl	LED7_Write
 1072              	.LVL226:
 286:main.c        ****                    LED8_Write(0);
 1073              		.loc 1 286 0
 1074 0604 0020     		movs	r0, #0
 1075 0606 FFF7FEFF 		bl	LED8_Write
 1076              	.LVL227:
 287:main.c        ****                    LED9_Write(0);
 1077              		.loc 1 287 0
 1078 060a 0020     		movs	r0, #0
 1079 060c FFF7FEFF 		bl	LED9_Write
 1080              	.LVL228:
 288:main.c        ****                    LED10_Write(0);
ARM GAS  C:\Users\acer\AppData\Local\Temp\ccaZesS6.s 			page 25


 1081              		.loc 1 288 0
 1082 0610 0020     		movs	r0, #0
 1083 0612 FFF7FEFF 		bl	LED10_Write
 1084              	.LVL229:
 289:main.c        ****                    CyDelay(500);  
 1085              		.loc 1 289 0
 1086 0616 4FF4FA70 		mov	r0, #500
 1087 061a FFF7FEFF 		bl	CyDelay
 1088              	.LVL230:
 1089              	.L23:
 290:main.c        ****             }
 291:main.c        ****                 if(FOCO_Read())
 1090              		.loc 1 291 0
 1091 061e FFF7FEFF 		bl	FOCO_Read
 1092              	.LVL231:
 1093 0622 0028     		cmp	r0, #0
 1094 0624 3CD0     		beq	.L24
 292:main.c        ****                 {
 293:main.c        ****                 LCD_ClearDisplay();
 1095              		.loc 1 293 0
 1096 0626 0120     		movs	r0, #1
 1097 0628 FFF7FEFF 		bl	LCD_WriteControl
 1098              	.LVL232:
 294:main.c        ****                 LCD_Position(0,4);
 1099              		.loc 1 294 0
 1100 062c 0421     		movs	r1, #4
 1101 062e 0020     		movs	r0, #0
 1102 0630 FFF7FEFF 		bl	LCD_Position
 1103              	.LVL233:
 295:main.c        ****                 LCD_PrintString("LEDS  ON");
 1104              		.loc 1 295 0
 1105 0634 1848     		ldr	r0, .L29+8
 1106 0636 FFF7FEFF 		bl	LCD_PrintString
 1107              	.LVL234:
 296:main.c        ****                 LCD_Position(1,3);
 1108              		.loc 1 296 0
 1109 063a 0321     		movs	r1, #3
 1110 063c 0120     		movs	r0, #1
 1111 063e FFF7FEFF 		bl	LCD_Position
 1112              	.LVL235:
 297:main.c        ****                 LCD_PrintString("");
 1113              		.loc 1 297 0
 1114 0642 1648     		ldr	r0, .L29+12
 1115 0644 FFF7FEFF 		bl	LCD_PrintString
 1116              	.LVL236:
 298:main.c        ****                 LED1_Write(0);
 1117              		.loc 1 298 0
 1118 0648 0020     		movs	r0, #0
 1119 064a FFF7FEFF 		bl	LED1_Write
 1120              	.LVL237:
 299:main.c        ****                 LED2_Write(0);
 1121              		.loc 1 299 0
 1122 064e 0020     		movs	r0, #0
 1123 0650 FFF7FEFF 		bl	LED2_Write
 1124              	.LVL238:
 300:main.c        ****                 LED3_Write(0);
 1125              		.loc 1 300 0
ARM GAS  C:\Users\acer\AppData\Local\Temp\ccaZesS6.s 			page 26


 1126 0654 0020     		movs	r0, #0
 1127 0656 FFF7FEFF 		bl	LED3_Write
 1128              	.LVL239:
 301:main.c        ****                 LED4_Write(0);
 1129              		.loc 1 301 0
 1130 065a 0020     		movs	r0, #0
 1131 065c FFF7FEFF 		bl	LED4_Write
 1132              	.LVL240:
 302:main.c        ****                 LED5_Write(0);
 1133              		.loc 1 302 0
 1134 0660 0020     		movs	r0, #0
 1135 0662 FFF7FEFF 		bl	LED5_Write
 1136              	.LVL241:
 303:main.c        ****                 LED6_Write(0);
 1137              		.loc 1 303 0
 1138 0666 0020     		movs	r0, #0
 1139 0668 FFF7FEFF 		bl	LED6_Write
 1140              	.LVL242:
 304:main.c        ****                 LED7_Write(0);
 1141              		.loc 1 304 0
 1142 066c 0020     		movs	r0, #0
 1143 066e FFF7FEFF 		bl	LED7_Write
 1144              	.LVL243:
 305:main.c        ****                 LED8_Write(0);
 1145              		.loc 1 305 0
 1146 0672 0020     		movs	r0, #0
 1147 0674 FFF7FEFF 		bl	LED8_Write
 1148              	.LVL244:
 306:main.c        ****                 LED9_Write(0);
 1149              		.loc 1 306 0
 1150 0678 0020     		movs	r0, #0
 1151 067a FFF7FEFF 		bl	LED9_Write
 1152              	.LVL245:
 307:main.c        ****                 LED10_Write(0);
 1153              		.loc 1 307 0
 1154 067e 0020     		movs	r0, #0
 1155 0680 FFF7FEFF 		bl	LED10_Write
 1156              	.LVL246:
 308:main.c        ****                 CyDelay(500);}
 1157              		.loc 1 308 0
 1158 0684 4FF4FA70 		mov	r0, #500
 1159 0688 FFF7FEFF 		bl	CyDelay
 1160              	.LVL247:
 1161 068c C6E4     		b	.L4
 1162              	.L30:
 1163 068e 00BF     		.align	2
 1164              	.L29:
 1165 0690 0C000000 		.word	.LC1
 1166 0694 18000000 		.word	.LC2
 1167 0698 00000000 		.word	.LC0
 1168 069c 2C000000 		.word	.LC3
 1169              	.L24:
 309:main.c        ****                 else
 310:main.c        ****             {
 311:main.c        ****                    LCD_ClearDisplay();
 1170              		.loc 1 311 0
 1171 06a0 0120     		movs	r0, #1
ARM GAS  C:\Users\acer\AppData\Local\Temp\ccaZesS6.s 			page 27


 1172 06a2 FFF7FEFF 		bl	LCD_WriteControl
 1173              	.LVL248:
 312:main.c        ****                    LCD_Position(0,4);
 1174              		.loc 1 312 0
 1175 06a6 0421     		movs	r1, #4
 1176 06a8 0020     		movs	r0, #0
 1177 06aa FFF7FEFF 		bl	LCD_Position
 1178              	.LVL249:
 313:main.c        ****                    LCD_PrintString("LEDS OFF");
 1179              		.loc 1 313 0
 1180 06ae 3048     		ldr	r0, .L31
 1181 06b0 FFF7FEFF 		bl	LCD_PrintString
 1182              	.LVL250:
 314:main.c        ****                    LCD_Position(1,0);
 1183              		.loc 1 314 0
 1184 06b4 0021     		movs	r1, #0
 1185 06b6 0120     		movs	r0, #1
 1186 06b8 FFF7FEFF 		bl	LCD_Position
 1187              	.LVL251:
 315:main.c        ****                    LCD_PrintString("------FOCO------");
 1188              		.loc 1 315 0
 1189 06bc 2D48     		ldr	r0, .L31+4
 1190 06be FFF7FEFF 		bl	LCD_PrintString
 1191              	.LVL252:
 316:main.c        ****                    LED1_Write(0);
 1192              		.loc 1 316 0
 1193 06c2 0020     		movs	r0, #0
 1194 06c4 FFF7FEFF 		bl	LED1_Write
 1195              	.LVL253:
 317:main.c        ****                    LED2_Write(0);
 1196              		.loc 1 317 0
 1197 06c8 0020     		movs	r0, #0
 1198 06ca FFF7FEFF 		bl	LED2_Write
 1199              	.LVL254:
 318:main.c        ****                    LED3_Write(0);
 1200              		.loc 1 318 0
 1201 06ce 0020     		movs	r0, #0
 1202 06d0 FFF7FEFF 		bl	LED3_Write
 1203              	.LVL255:
 319:main.c        ****                    LED4_Write(0);
 1204              		.loc 1 319 0
 1205 06d4 0020     		movs	r0, #0
 1206 06d6 FFF7FEFF 		bl	LED4_Write
 1207              	.LVL256:
 320:main.c        ****                    LED5_Write(0);
 1208              		.loc 1 320 0
 1209 06da 0020     		movs	r0, #0
 1210 06dc FFF7FEFF 		bl	LED5_Write
 1211              	.LVL257:
 321:main.c        ****                    LED6_Write(0);
 1212              		.loc 1 321 0
 1213 06e0 0020     		movs	r0, #0
 1214 06e2 FFF7FEFF 		bl	LED6_Write
 1215              	.LVL258:
 322:main.c        ****                    LED7_Write(0);
 1216              		.loc 1 322 0
 1217 06e6 0020     		movs	r0, #0
ARM GAS  C:\Users\acer\AppData\Local\Temp\ccaZesS6.s 			page 28


 1218 06e8 FFF7FEFF 		bl	LED7_Write
 1219              	.LVL259:
 323:main.c        ****                    LED8_Write(0);
 1220              		.loc 1 323 0
 1221 06ec 0020     		movs	r0, #0
 1222 06ee FFF7FEFF 		bl	LED8_Write
 1223              	.LVL260:
 324:main.c        ****                    LED9_Write(0);
 1224              		.loc 1 324 0
 1225 06f2 0020     		movs	r0, #0
 1226 06f4 FFF7FEFF 		bl	LED9_Write
 1227              	.LVL261:
 325:main.c        ****                    LED10_Write(0);
 1228              		.loc 1 325 0
 1229 06f8 0020     		movs	r0, #0
 1230 06fa FFF7FEFF 		bl	LED10_Write
 1231              	.LVL262:
 326:main.c        ****                    CyDelay(500);  
 1232              		.loc 1 326 0
 1233 06fe 4FF4FA70 		mov	r0, #500
 1234 0702 FFF7FEFF 		bl	CyDelay
 1235              	.LVL263:
 1236 0706 89E4     		b	.L4
 1237              	.L5:
 327:main.c        ****             }
 328:main.c        ****         }else
 329:main.c        ****             {
 330:main.c        ****                    LCD_ClearDisplay();
 1238              		.loc 1 330 0
 1239 0708 0120     		movs	r0, #1
 1240 070a FFF7FEFF 		bl	LCD_WriteControl
 1241              	.LVL264:
 331:main.c        ****                    LCD_Position(0,4);
 1242              		.loc 1 331 0
 1243 070e 0421     		movs	r1, #4
 1244 0710 0020     		movs	r0, #0
 1245 0712 FFF7FEFF 		bl	LCD_Position
 1246              	.LVL265:
 332:main.c        ****                    LCD_PrintString("LEDS OFF");
 1247              		.loc 1 332 0
 1248 0716 1648     		ldr	r0, .L31
 1249 0718 FFF7FEFF 		bl	LCD_PrintString
 1250              	.LVL266:
 333:main.c        ****                    LCD_Position(1,0);
 1251              		.loc 1 333 0
 1252 071c 0021     		movs	r1, #0
 1253 071e 0120     		movs	r0, #1
 1254 0720 FFF7FEFF 		bl	LCD_Position
 1255              	.LVL267:
 334:main.c        ****                    LCD_PrintString("------FOCO------");
 1256              		.loc 1 334 0
 1257 0724 1348     		ldr	r0, .L31+4
 1258 0726 FFF7FEFF 		bl	LCD_PrintString
 1259              	.LVL268:
 335:main.c        ****                    LED1_Write(0);
 1260              		.loc 1 335 0
 1261 072a 0020     		movs	r0, #0
ARM GAS  C:\Users\acer\AppData\Local\Temp\ccaZesS6.s 			page 29


 1262 072c FFF7FEFF 		bl	LED1_Write
 1263              	.LVL269:
 336:main.c        ****                    LED2_Write(0);
 1264              		.loc 1 336 0
 1265 0730 0020     		movs	r0, #0
 1266 0732 FFF7FEFF 		bl	LED2_Write
 1267              	.LVL270:
 337:main.c        ****                    LED3_Write(0);
 1268              		.loc 1 337 0
 1269 0736 0020     		movs	r0, #0
 1270 0738 FFF7FEFF 		bl	LED3_Write
 1271              	.LVL271:
 338:main.c        ****                    LED4_Write(0);
 1272              		.loc 1 338 0
 1273 073c 0020     		movs	r0, #0
 1274 073e FFF7FEFF 		bl	LED4_Write
 1275              	.LVL272:
 339:main.c        ****                    LED5_Write(0);
 1276              		.loc 1 339 0
 1277 0742 0020     		movs	r0, #0
 1278 0744 FFF7FEFF 		bl	LED5_Write
 1279              	.LVL273:
 340:main.c        ****                    LED6_Write(0);
 1280              		.loc 1 340 0
 1281 0748 0020     		movs	r0, #0
 1282 074a FFF7FEFF 		bl	LED6_Write
 1283              	.LVL274:
 341:main.c        ****                    LED7_Write(0);
 1284              		.loc 1 341 0
 1285 074e 0020     		movs	r0, #0
 1286 0750 FFF7FEFF 		bl	LED7_Write
 1287              	.LVL275:
 342:main.c        ****                    LED8_Write(0);
 1288              		.loc 1 342 0
 1289 0754 0020     		movs	r0, #0
 1290 0756 FFF7FEFF 		bl	LED8_Write
 1291              	.LVL276:
 343:main.c        ****                    LED9_Write(0);
 1292              		.loc 1 343 0
 1293 075a 0020     		movs	r0, #0
 1294 075c FFF7FEFF 		bl	LED9_Write
 1295              	.LVL277:
 344:main.c        ****                    LED10_Write(0);
 1296              		.loc 1 344 0
 1297 0760 0020     		movs	r0, #0
 1298 0762 FFF7FEFF 		bl	LED10_Write
 1299              	.LVL278:
 345:main.c        ****                    CyDelay(500);  
 1300              		.loc 1 345 0
 1301 0766 4FF4FA70 		mov	r0, #500
 1302 076a FFF7FEFF 		bl	CyDelay
 1303              	.LVL279:
 1304 076e 55E4     		b	.L4
 1305              	.L32:
 1306              		.align	2
 1307              	.L31:
 1308 0770 0C000000 		.word	.LC1
ARM GAS  C:\Users\acer\AppData\Local\Temp\ccaZesS6.s 			page 30


 1309 0774 18000000 		.word	.LC2
 1310              		.cfi_endproc
 1311              	.LFE64:
 1312              		.size	main, .-main
 1313              		.section	.rodata.str1.4,"aMS",%progbits,1
 1314              		.align	2
 1315              	.LC0:
 1316 0000 4C454453 		.ascii	"LEDS  ON\000"
 1316      20204F4E 
 1316      00
 1317 0009 000000   		.space	3
 1318              	.LC1:
 1319 000c 4C454453 		.ascii	"LEDS OFF\000"
 1319      204F4646 
 1319      00
 1320 0015 000000   		.space	3
 1321              	.LC2:
 1322 0018 2D2D2D2D 		.ascii	"------FOCO------\000"
 1322      2D2D464F 
 1322      434F2D2D 
 1322      2D2D2D2D 
 1322      00
 1323 0029 000000   		.space	3
 1324              	.LC3:
 1325 002c 00       		.ascii	"\000"
 1326              		.text
 1327              	.Letext0:
 1328              		.file 2 "c:\\program files (x86)\\cypress\\psoc creator\\4.2\\psoc creator\\import\\gnu\\arm\\5.4.
 1329              		.file 3 "c:\\program files (x86)\\cypress\\psoc creator\\4.2\\psoc creator\\import\\gnu\\arm\\5.4.
 1330              		.file 4 "Generated_Source\\PSoC5/FOCO.h"
 1331              		.file 5 "Generated_Source\\PSoC5/Sw1.h"
 1332              		.file 6 "Generated_Source\\PSoC5/IRQ_Sw.h"
 1333              		.file 7 "Generated_Source\\PSoC5/LCD.h"
 1334              		.file 8 "Generated_Source\\PSoC5/LED1.h"
 1335              		.file 9 "Generated_Source\\PSoC5/CyLib.h"
 1336              		.file 10 "Generated_Source\\PSoC5/LED2.h"
 1337              		.file 11 "Generated_Source\\PSoC5/LED3.h"
 1338              		.file 12 "Generated_Source\\PSoC5/LED4.h"
 1339              		.file 13 "Generated_Source\\PSoC5/LED5.h"
 1340              		.file 14 "Generated_Source\\PSoC5/LED6.h"
 1341              		.file 15 "Generated_Source\\PSoC5/LED7.h"
 1342              		.file 16 "Generated_Source\\PSoC5/LED8.h"
 1343              		.file 17 "Generated_Source\\PSoC5/LED9.h"
 1344              		.file 18 "Generated_Source\\PSoC5/LED10.h"
 1345              		.file 19 "Generated_Source\\PSoC5/core_cm3.h"